(dp0
I6766592
F0.0010548655854416631
sI12566536
F0.00018669442362798469
sI12566538
F0.00018669442362798469
sI11067404
F0.00018669442362798469
sI12353549
F0.00018669442362798469
sI11067406
F0.0012418321131417516
sI10084368
F0.00018669442362798469
sI16121875
F0.002042755737905072
sI4546582
F0.0007876860195622325
sI20111387
F0.00018669442362798469
sI589855
F0.00018669442362798469
sI21454880
F0.00018669442362798469
sI7872551
F0.00018669442362798469
sI10035241
F0.00018669442362798469
sI7872554
F0.00018669442362798469
sI32051207
F0.0004623929048552582
sI32292915
F0.0005841856537521368
sI3973175
F0.00018669442362798469
sI2359353
F0.00018669442362798469
sI417850
F0.0012446287230619864
sI113333
F0.0003285900558923994
sI2359362
F0.00018669442362798469
sI3326029
F0.00018669442362798469
sI30384207
F0.00018669442362798469
sI4251731
F0.00018669442362798469
sI10182740
F0.00018669442362798469
sI10182743
F0.00018669442362798469
sI10182744
F0.00018669442362798469
sI417883
F0.0012446287230619864
sI417885
F0.0012446287230619864
sI31180133
F0.00018669442362798469
sI30703632
F0.00018669442362798469
sI40190052
F0.00018669442362798469
sI5068134
F0.00018669442362798469
sI417895
F0.0012446287230619864
sI40345705
F0.00018669442362798469
sI21274731
F0.00018669442362798469
sI4776048
F0.00030101030636302755
sI4546579
F0.0015710582051159043
sI21520503
F0.00018669442362798469
sI1499258
F0.00018669442362798469
sI39059584
F0.00018669442362798469
sI42950788
F0.00018669442362798469
sI20054150
F0.00018669442362798469
sI4194440
F0.00018669442362798469
sI3965069
F0.00018669442362798469
sI1568792
F0.00018669442362798469
sI1171609
F0.00018669442362798469
sI2883740
F0.00018669442362798469
sI14172317
F0.00030101030636302755
sI12558496
F0.00018669442362798469
sI3965091
F0.00018669442362798469
sI12558501
F0.00018669442362798469
sI2171049
F0.00018669442362798469
sI13869227
F0.00018669442362798469
sI13836461
F0.00018669442362798469
sI11477168
F0.00018669442362798469
sI21889201
F0.00018669442362798469
sI6103218
F0.0005451698206985355
sI33284275
F0.00018669442362798469
sI10092728
F0.00018669442362798469
sI2605241
F0.00018669442362798469
sI3653664
F0.00040502288014764796
sI10936515
F0.00018669442362798469
sI8126665
F0.00018669442362798469
sI20013260
F0.00018669442362798469
sI41169
F0.0003225215994940284
sI991443
F0.00030101030636302755
sI65749
F0.0006641081265602257
sI4392313
F0.00018669442362798469
sI11313370
F0.00018669442362798469
sI8593630
F0.00018669442362798469
sI7504109
F0.00018669442362798469
sI20840693
F0.0005841856537521368
sI827641
F0.00030101030636302755
sI21913854
F0.00018669442362798469
sI2112213
F0.00018669442362798469
sI21094656
F0.00018669442362798469
sI41771265
F0.00018669442362798469
sI25985
F0.000578733114493486
sI3088650
F0.00018669442362798469
sI7027415
F0.0005451698206985355
sI12380888
F0.00018669442362798469
sI794898
F0.00018669442362798469
sI21031641
F0.00018669442362798469
sI31785242
F0.00037040651229733914
sI5308700
F0.00018669442362798469
sI42557725
F0.00018669442362798469
sI5308702
F0.00018669442362798469
sI31491461
F0.0006622088062464601
sI2138403
F0.00018669442362798469
sI7733540
F0.00018669442362798469
sI12469638
F0.00018669442362798469
sI1381767
F0.00018669442362798469
sI8667440
F0.0014371220583180029
sI673160
F0.00018669442362798469
sI5202226
F0.00030101030636302755
sI42973918
F0.00018669442362798469
sI22061367
F0.00018669442362798469
sI1212728
F0.00045575520169138654
sI11554868
F0.0005841856537521368
sI516410
F0.00018669442362798469
sI18235707
F0.00018669442362798469
sI1212732
F0.0013348146668635762
sI6635838
F0.0004982226643924513
sI6963520
F0.0005451698206985355
sI794945
F0.00018669442362798469
sI2203970
F0.00018669442362798469
sI4178243
F0.00018669442362798469
sI6537541
F0.0006426275022772372
sI1212742
F0.00045575520169138654
sI17416521
F0.00018669442362798469
sI30187851
F0.00018669442362798469
sI1671502
F0.0003285900558923994
sI1671512
F0.0003285900558923994
sI30255844
F0.00018669442362798469
sI16269662
F0.00018669442362798469
sI13787490
F0.00018669442362798469
sI819555
F0.00018669442362798469
sI20791655
F0.00018669442362798469
sI21176680
F0.00018669442362798469
sI20914543
F0.00018669442362798469
sI20914545
F0.00018669442362798469
sI1999220
F0.00018669442362798469
sI33464693
F0.00018669442362798469
sI1442166
F0.00018669442362798469
sI4415870
F0.00018669442362798469
sI15425921
F0.00018669442362798469
sI13083017
F0.00018669442362798469
sI3277196
F0.0006533649895880854
sI43221394
F0.00018669442362798469
sI43221397
F0.00018669442362798469
sI20382104
F0.00018669442362798469
sI11051424
F0.000674492856602155
sI32426759
F0.00018669442362798469
sI31031716
F0.00018669442362798469
sI12845477
F0.00018669442362798469
sI32416171
F0.00018669442362798469
sI7864750
F0.00018669442362798469
sI243101
F0.00018669442362798469
sI6193589
F0.0006552935379904833
sI32367036
F0.00018669442362798469
sI2113995
F0.00018669442362798469
sI4653521
F0.00018669442362798469
sI1819094
F0.00018669442362798469
sI17359322
F0.00018669442362798469
sI12509660
F0.00018669442362798469
sI38363625
F0.00018669442362798469
sI3678699
F0.00018669442362798469
sI3285484
F0.00018669442362798469
sI10133997
F0.00018669442362798469
sI7840239
F0.00018669442362798469
sI18719224
F0.0003259443005752681
sI39051769
F0.00018669442362798469
sI21528013
F0.00018669442362798469
sI483835
F0.00018669442362798469
sI475646
F0.0003285900558923994
sI6341121
F0.00018669442362798469
sI3916292
F0.0005841856537521368
sI20922889
F0.0003225215994940284
sI3366999
F0.00018669442362798469
sI2384402
F0.00018669442362798469
sI16163348
F0.00018669442362798469
sI33138094
F0.00018669442362798469
sI21444015
F0.00018669442362798469
sI10895900
F0.0017290549406265455
sI11330079
F0.00018669442362798469
sI3654179
F0.00018669442362798469
sI36562353
F0.00018669442362798469
sI2823
F0.0006515749720777576
sI42557533
F0.00018669442362798469
sI30630459
F0.00018669442362798469
sI13842095
F0.00018669442362798469
sI10273344
F0.0012975262450513224
sI2540097
F0.00018669442362798469
sI3334722
F0.0003285900558923994
sI32023990
F0.00018669442362798469
sI2089543
F0.00018669442362798469
sI2089544
F0.00018669442362798469
sI21185098
F0.00018669442362798469
sI12419660
F0.00018669442362798469
sI35193422
F0.00018669442362798469
sI4694607
F0.00018669442362798469
sI1696339
F0.00018669442362798469
sI30155348
F0.0003722046628182734
sI3539542
F0.00018669442362798469
sI16187996
F0.00018669442362798469
sI32727645
F0.00018669442362798469
sI10453599
F0.00018669442362798469
sI6734433
F0.0023592299409807747
sI31212130
F0.00018669442362798469
sI12968549
F0.0012446287230619864
sI12968550
F0.0012446287230619864
sI4114945
F0.00018669442362798469
sI664182
F0.0013718399702844848
sI41583226
F0.00018669442362798469
sI4661888
F0.00018669442362798469
sI10289796
F0.00018669442362798469
sI40714888
F0.0006603308818590284
sI40714889
F0.0003270147361456438
sI40714890
F0.00018669442362798469
sI40714891
F0.00018669442362798469
sI40714892
F0.00018669442362798469
sI20193933
F0.00018669442362798469
sI20013710
F0.00018669442362798469
sI21758608
F0.0004842704611900942
sI32633540
F0.00018669442362798469
sI33833626
F0.00018669442362798469
sI33833627
F0.00018669442362798469
sI860828
F0.00018669442362798469
sI860834
F0.00018669442362798469
sI33759907
F0.00018669442362798469
sI120262
F0.00033264860651975445
sI3031720
F0.00018669442362798469
sI1442473
F0.00018669442362798469
sI7811186
F0.0005208747543205399
sI20554418
F0.0003285900558923994
sI1499251
F0.00018669442362798469
sI4162228
F0.00018669442362798469
sI3736245
F0.00018669442362798469
sI2613942
F0.0010037910204632385
sI4702903
F0.00018669442362798469
sI12333172
F0.00101758886718029
sI20390588
F0.00018669442362798469
sI41149122
F0.00018669442362798469
sI2441923
F0.0003722046628182734
sI12968644
F0.00018669442362798469
sI40610593
F0.00018669442362798469
sI4653769
F0.00018669442362798469
sI35758801
F0.00018669442362798469
sI4072146
F0.00018669442362798469
sI15557334
F0.00018669442362798469
sI33229604
F0.00018669442362798469
sI107226
F0.00018669442362798469
sI328417
F0.0004945264066822736
sI6595301
F0.0008157171281937678
sI4031210
F0.00018669442362798469
sI41566956
F0.00018669442362798469
sI21193454
F0.00018669442362798469
sI6537967
F0.0002757457723928507
sI12280561
F0.00018669442362798469
sI6537971
F0.00018669442362798469
sI4113141
F0.00018669442362798469
sI30802679
F0.00018669442362798469
sI30802680
F0.00018669442362798469
sI787194
F0.00018669442362798469
sI69760
F0.00018669442362798469
sI4236034
F0.00018669442362798469
sI20579080
F0.00018669442362798469
sI3556105
F0.00018669442362798469
sI1278730
F0.00018669442362798469
sI1409803
F0.00018669442362798469
sI15500044
F0.00018669442362798469
sI41741
F0.00018669442362798469
sI1278734
F0.00018669442362798469
sI5022480
F0.00018669442362798469
sI39411012
F0.00018669442362798469
sI14779157
F0.00018669442362798469
sI2294550
F0.00018669442362798469
sI15090455
F0.00018669442362798469
sI3105560
F0.00018669442362798469
sI40805145
F0.00018669442362798469
sI42779418
F0.00018669442362798469
sI12624667
F0.0003423748289256795
sI4440862
F0.00641036960347875
sI17220393
F0.00018669442362798469
sI5432108
F0.00018669442362798469
sI5159730
F0.00040092627502090136
sI39068466
F0.00018669442362798469
sI40789471
F0.00018669442362798469
sI12542783
F0.0004185155567639539
sI2818880
F0.00018669442362798469
sI17900353
F0.00018669442362798469
sI20652866
F0.00018669442362798469
sI20366148
F0.00018669442362798469
sI37741381
F0.00018669442362798469
sI37741382
F0.00048027140512256836
sI38421322
F0.00018669442362798469
sI3744587
F0.00018669442362798469
sI6628172
F0.00018669442362798469
sI3482446
F0.00018669442362798469
sI36152143
F0.00018669442362798469
sI30917459
F0.00018669442362798469
sI16048987
F0.00018669442362798469
sI30393181
F0.00018669442362798469
sI672614
F0.00018669442362798469
sI22061927
F0.00018669442362798469
sI33211240
F0.00018669442362798469
sI2990953
F0.00018669442362798469
sI942954
F0.00018669442362798469
sI2990955
F0.00018669442362798469
sI3580780
F0.00018669442362798469
sI3343213
F0.00018669442362798469
sI3580783
F0.00018669442362798469
sI5415796
F0.00018669442362798469
sI41100149
F0.00018669442362798469
sI42779512
F0.0005779608540204578
sI42779513
F0.0003124112723171405
sI42779514
F0.00044370652438603794
sI42779515
F0.000844768646404118
sI42779516
F0.0004852245402216058
sI15991677
F0.0006627652042379867
sI20398974
F0.00018669442362798469
sI2057088
F0.00018669442362798469
sI1565569
F0.000506143766797648
sI1147782
F0.00018669442362798469
sI18645896
F0.00018669442362798469
sI11051914
F0.00018669442362798469
sI4914480
F0.00036424813453323325
sI3605392
F0.00018669442362798469
sI12280721
F0.00018669442362798469
sI21480338
F0.00018669442362798469
sI17195926
F0.00018669442362798469
sI746392
F0.00018669442362798469
sI13976478
F0.0010684328374684342
sI4653983
F0.00018669442362798469
sI12796835
F0.00018669442362798469
sI21939112
F0.00018669442362798469
sI21939113
F0.00018669442362798469
sI30778283
F0.00018669442362798469
sI9839535
F0.00018669442362798469
sI21996468
F0.00018669442362798469
sI50864288
F0.00018669442362798469
sI9233347
F0.00018669442362798469
sI30778309
F0.00018669442362798469
sI2171847
F0.00040092627502090136
sI4457416
F0.00045329483684894846
sI533449
F0.00018669442362798469
sI2171854
F0.00018669442362798469
sI3220432
F0.00018669442362798469
sI2171858
F0.00018669442362798469
sI32326614
F0.00018669442362798469
sI22045655
F0.00018669442362798469
sI22045658
F0.00018669442362798469
sI22045661
F0.00018669442362798469
sI32310244
F0.00018669442362798469
sI2352106
F0.00018669442362798469
sI21996523
F0.00018669442362798469
sI12821484
F0.00018669442362798469
sI22012909
F0.00018669442362798469
sI12133363
F0.00018669442362798469
sI17425397
F0.00018669442362798469
sI39953398
F0.00018669442362798469
sI39070548
F0.00018669442362798469
sI14369806
F0.00018669442362798469
sI21004461
F0.00018669442362798469
sI779285
F0.00018669442362798469
sI33873895
F0.00018669442362798469
sI22160410
F0.00018669442362798469
sI6906908
F0.0003453846838313187
sI20907037
F0.00018669442362798469
sI20907038
F0.00018669442362798469
sI20382751
F0.00018669442362798469
sI2155555
F0.00018669442362798469
sI1926180
F0.00018669442362798469
sI1623558
F0.00018669442362798469
sI38609958
F0.00018669442362798469
sI21480487
F0.00018669442362798469
sI1541164
F0.00018669442362798469
sI20187997
F0.00018669442362798469
sI2155568
F0.00018669442362798469
sI22160433
F0.0004185155567639539
sI8578102
F0.0007150324487614314
sI14435385
F0.00018669442362798469
sI15172671
F0.00018669442362798469
sI246848
F0.0010040126691026672
sI42050
F0.0016616273434444475
sI32326725
F0.00018669442362798469
sI3441735
F0.00018669442362798469
sI21898313
F0.00018669442362798469
sI17548368
F0.00018669442362798469
sI31351902
F0.0003453846838313187
sI4580447
F0.0003423748289256795
sI32179298
F0.00018669442362798469
sI32179299
F0.0003285900558923994
sI6112356
F0.00018669442362798469
sI32105573
F0.00018669442362798469
sI32425063
F0.00018669442362798469
sI4760683
F0.00018669442362798469
sI42771564
F0.00018669442362798469
sI6112371
F0.00018669442362798469
sI21333111
F0.00018669442362798469
sI7677050
F0.001347765135606092
sI14648450
F0.00018669442362798469
sI2529667
F0.00045575520169138654
sI20448389
F0.00018669442362798469
sI43459724
F0.00018669442362798469
sI7082178
F0.00018669442362798469
sI11846804
F0.00018669442362798469
sI13960341
F0.00018669442362798469
sI33727638
F0.00018669442362798469
sI15475868
F0.00018669442362798469
sI1287329
F0.0005877635163668803
sI15475874
F0.00018669442362798469
sI31343780
F0.00018669442362798469
sI15475884
F0.00018669442362798469
sI11969709
F0.00018669442362798469
sI20186286
F0.00018669442362798469
sI30885039
F0.00037040651229733914
sI14485022
F0.0003285900558923994
sI11440329
F0.00018669442362798469
sI35169464
F0.00018669442362798469
sI386237
F0.00018669442362798469
sI2409662
F0.00018669442362798469
sI386243
F0.00018669442362798469
sI30786756
F0.00018669442362798469
sI21750982
F0.00018669442362798469
sI30786759
F0.00018669442362798469
sI3187917
F0.00018669442362798469
sI3392718
F0.00038479692038840885
sI41706712
F0.0004247298139329857
sI4039898
F0.00018669442362798469
sI3187931
F0.00018669442362798469
sI10290398
F0.00018669442362798469
sI7726303
F0.00018669442362798469
sI845027
F0.00018669442362798469
sI9954532
F0.0009322470411356777
sI15377637
F0.00018669442362798469
sI16991466
F0.00018669442362798469
sI476395
F0.0008572543693743432
sI3761388
F0.00018669442362798469
sI5121261
F0.0003285900558923994
sI6341872
F0.006474481667917245
sI17695991
F0.00018669442362798469
sI5088505
F0.00018669442362798469
sI20553941
F0.00030101030636302755
sI10478851
F0.00018669442362798469
sI20292870
F0.0009160441571511389
sI1508618
F0.00018669442362798469
sI5088523
F0.003136475429461621
sI5088524
F0.0008707333351016596
sI8693008
F0.00018669442362798469
sI17130769
F0.0005411969019941698
sI2458898
F0.00018669442362798469
sI2934040
F0.00018669442362798469
sI3128586
F0.0005841856537521368
sI4515108
F0.00018669442362798469
sI17122600
F0.00018669442362798469
sI3310889
F0.00018669442362798469
sI2278699
F0.00018669442362798469
sI4793645
F0.00018669442362798469
sI21087539
F0.00018669442362798469
sI15025460
F0.00043337454858162613
sI20645173
F0.00018669442362798469
sI15025465
F0.00018669442362798469
sI38438203
F0.00018669442362798469
sI20915516
F0.00018669442362798469
sI859018
F0.00018669442362798469
sI1959232
F0.0003285900558923994
sI33195330
F0.00018669442362798469
sI15025480
F0.0010770859147515629
sI4810062
F0.0004185155567639539
sI30688596
F0.00018669442362798469
sI14293903
F0.00018669442362798469
sI7193948
F0.00018669442362798469
sI37455197
F0.00018669442362798469
sI1378
F0.00018669442362798469
sI4343139
F0.00018669442362798469
sI21636453
F0.00018669442362798469
sI31180134
F0.00018669442362798469
sI3769705
F0.00018669442362798469
sI14411118
F0.0005113567534967426
sI4769138
F0.00018669442362798469
sI16237943
F0.00018669442362798469
sI34899321
F0.00018669442362798469
sI1926526
F0.00018669442362798469
sI3081601
F0.00018669442362798469
sI2511083
F0.00041933584857359785
sI31491460
F0.000962299715440472
sI21751173
F0.00018669442362798469
sI31491462
F0.0017739100724041682
sI31491464
F0.0006921310666462755
sI31491465
F0.00035666712324529035
sI14124427
F0.0006244470357070327
sI107917
F0.00018669442362798469
sI21636494
F0.00018669442362798469
sI7086317
F0.0014870881055723169
sI4613522
F0.00018669442362798469
sI30860695
F0.0006066312431872979
sI5457312
F0.00018669442362798469
sI20391329
F0.00018669442362798469
sI9921955
F0.00018669442362798469
sI4834728
F0.00018669442362798469
sI15549870
F0.00018669442362798469
sI16860593
F0.0007329532953908965
sI21956022
F0.00018669442362798469
sI6633033
F0.00018669442362798469
sI39355832
F0.00018669442362798469
sI15779261
F0.00018669442362798469
sI34481598
F0.0006875013104675553
sI827637
F0.00030101030636302755
sI38389185
F0.00018669442362798469
sI35142348
F0.00018669442362798469
sI2508231
F0.0025077428462834655
sI3696073
F0.00018669442362798469
sI8229111
F0.00018669442362798469
sI30614988
F0.00018669442362798469
sI40789453
F0.00018669442362798469
sI12805584
F0.00018669442362798469
sI17548755
F0.00018669442362798469
sI14265252
F0.00018669442362798469
sI22055845
F0.00018669442362798469
sI20702688
F0.00018669442362798469
sI21976657
F0.00018669442362798469
sI1156585
F0.0006641081265602257
sI37524559
F0.00018669442362798469
sI18564588
F0.00018669442362798469
sI4146669
F0.00018669442362798469
sI4457967
F0.0003285900558923994
sI14919153
F0.00030101030636302755
sI14550517
F0.00018669442362798469
sI1992185
F0.00018669442362798469
sI20030975
F0.00018669442362798469
sI15080363
F0.0003285900558923994
sI18122245
F0.005729335200300547
sI18122246
F0.0030759335931313373
sI2065930
F0.00018669442362798469
sI6211090
F0.00033174122566202334
sI4458004
F0.00018669442362798469
sI33659822
F0.00018669442362798469
sI3687958
F0.00018669442362798469
sI3917335
F0.000674492856602155
sI16401950
F0.00018669442362798469
sI33965601
F0.00018669442362798469
sI20465186
F0.00030101030636302755
sI3982883
F0.00018669442362798469
sI3786280
F0.00018669442362798469
sI39077417
F0.00018669442362798469
sI22050700
F0.00018669442362798469
sI11191852
F0.0006533649895880854
sI21841455
F0.00018669442362798469
sI20145712
F0.00018669442362798469
sI11191857
F0.00018669442362798469
sI3570611
F0.00018669442362798469
sI869941
F0.00018669442362798469
sI2311734
F0.00018669442362798469
sI40044087
F0.00018669442362798469
sI3909178
F0.0006942673293229744
sI21407296
F0.00018669442362798469
sI1602
F0.00018669442362798469
sI10561091
F0.00018669442362798469
sI1984070
F0.00045575520169138654
sI16901703
F0.00018669442362798469
sI14698056
F0.00018669442362798469
sI14698057
F0.00018669442362798469
sI3376717
F0.00018669442362798469
sI12699216
F0.00018669442362798469
sI12437074
F0.00018669442362798469
sI10258003
F0.00018669442362798469
sI42772052
F0.00018669442362798469
sI14116437
F0.00018669442362798469
sI20964950
F0.00018669442362798469
sI869980
F0.0007617393646573853
sI1185381
F0.00018669442362798469
sI1984096
F0.0057915983371846745
sI4564578
F0.00018669442362798469
sI1623661
F0.0003285900558923994
sI31532655
F0.00018669442362798469
sI38585972
F0.00018669442362798469
sI318398
F0.00018669442362798469
sI38585974
F0.00018669442362798469
sI17114743
F0.00018669442362798469
sI575096
F0.00018669442362798469
sI38159997
F0.00018669442362798469
sI21038718
F0.00018669442362798469
sI4392577
F0.00018669442362798469
sI31786626
F0.0009064422158853089
sI33314411
F0.0006533649895880854
sI5486188
F0.00018669442362798469
sI13158031
F0.00018669442362798469
sI2746000
F0.00018669442362798469
sI7358099
F0.00018669442362798469
sI10127000
F0.00018669442362798469
sI21279002
F0.000674492856602155
sI20711023
F0.00018669442362798469
sI20721946
F0.00040092627502090136
sI9332390
F0.00018669442362798469
sI41649835
F0.00018669442362798469
sI20997804
F0.00018669442362798469
sI304814
F0.00018669442362798469
sI5308701
F0.00018669442362798469
sI30885553
F0.00018669442362798469
sI10679923
F0.00018669442362798469
sI8406709
F0.00018669442362798469
sI4105911
F0.00041781427757462574
sI2680506
F0.00018669442362798469
sI21513917
F0.00018669442362798469
sI3909311
F0.00018669442362798469
sI41625281
F0.0003453846838313187
sI40012747
F0.00035238342919358167
sI32310981
F0.00018669442362798469
sI1566406
F0.00018669442362798469
sI8244172
F0.00018669442362798469
sI1967820
F0.00018669442362798469
sI41625293
F0.00038201434590845424
sI3131086
F0.00018669442362798469
sI20252280
F0.00018669442362798469
sI42762531
F0.00018669442362798469
sI20719316
F0.00018669442362798469
sI43427544
F0.0012310695822995443
sI15591130
F0.00018669442362798469
sI9856732
F0.00018669442362798469
sI20891357
F0.00018669442362798469
sI20891358
F0.00018669442362798469
sI20891359
F0.0006641081265602257
sI21972704
F0.00018669442362798469
sI38717160
F0.00018669442362798469
sI2254569
F0.0003225215994940284
sI12281580
F0.00018669442362798469
sI4234194
F0.00018669442362798469
sI5486205
F0.00018669442362798469
sI17426161
F0.00018669442362798469
sI11036403
F0.0003225215994940284
sI4155129
F0.000506143766797648
sI34285307
F0.00018669442362798469
sI4474621
F0.0003285900558923994
sI5793534
F0.00018669442362798469
sI8029953
F0.000764505396635117
sI21448322
F0.00018669442362798469
sI20334351
F0.00018669442362798469
sI11806481
F0.0006875013104675553
sI4146965
F0.00018669442362798469
sI41887512
F0.00018669442362798469
sI30629173
F0.00018669442362798469
sI7325488
F0.00018669442362798469
sI1623663
F0.011184714531788112
sI14218890
F0.00018669442362798469
sI42764095
F0.0006668289372123097
sI33564483
F0.00018669442362798469
sI1066823
F0.000506143766797648
sI20653900
F0.00018669442362798469
sI21702477
F0.00018669442362798469
sI8070991
F0.0007372015272454368
sI8070992
F0.000765073104482804
sI15656788
F0.00018669442362798469
sI41650007
F0.00018669442362798469
sI3589977
F0.00018669442362798469
sI32089948
F0.00018669442362798469
sI1501021
F0.00018669442362798469
sI1509214
F0.00018669442362798469
sI5302112
F0.00018669442362798469
sI39004002
F0.00018669442362798469
sI837475
F0.00018669442362798469
sI837476
F0.00018669442362798469
sI8071017
F0.0007223556149123504
sI8071019
F0.0023851400642563173
sI31983469
F0.00018669442362798469
sI4573044
F0.00018669442362798469
sI3868533
F0.00018669442362798469
sI5384057
F0.00018669442362798469
sI8071035
F0.002017362272114077
sI8071036
F0.0005306512652833973
sI8071037
F0.0004922361066291544
sI14608256
F0.00018669442362798469
sI15304577
F0.00018669442362798469
sI8071043
F0.0007963002296510649
sI31200920
F0.0003453846838313187
sI1212739
F0.0004211162628273914
sI21496418
F0.00018669442362798469
sI13158294
F0.0007372015272454368
sI5851031
F0.00018669442362798469
sI43239320
F0.0007407209058706416
sI5203865
F0.00018669442362798469
sI1410971
F0.00037776810794890714
sI4499356
F0.0005841856537521368
sI13510562
F0.00018669442362798469
sI2279331
F0.00018669442362798469
sI12814247
F0.00018669442362798469
sI41076649
F0.00018669442362798469
sI41076650
F0.00018669442362798469
sI41076651
F0.00018669442362798469
sI41076652
F0.00018669442362798469
sI37431216
F0.00018669442362798469
sI21333938
F0.00018669442362798469
sI32475060
F0.00045575520169138654
sI4179894
F0.00018669442362798469
sI32475064
F0.00018669442362798469
sI30197690
F0.00018669442362798469
sI21292992
F0.00018669442362798469
sI9742279
F0.00018669442362798469
sI14895048
F0.00030101030636302755
sI1140683
F0.00041933584857359785
sI10708942
F0.00018669442362798469
sI30779344
F0.00018669442362798469
sI4507601
F0.00018669442362798469
sI21661651
F0.00018669442362798469
sI5834711
F0.000420573911101236
sI10815450
F0.00018669442362798469
sI2705372
F0.00018669442362798469
sI4802525
F0.00018669442362798469
sI2705374
F0.00030101030636302755
sI17254369
F0.0003490505207826535
sI5687266
F0.00018669442362798469
sI2705379
F0.00018669442362798469
sI41420773
F0.00018669442362798469
sI33474535
F0.00018669442362798469
sI2705385
F0.00036424813453323325
sI4524016
F0.00018669442362798469
sI14239731
F0.0012793363472695446
sI313332
F0.00018669442362798469
sI4917246
F0.00018669442362798469
sI11282432
F0.00018669442362798469
sI1706050
F0.00018669442362798469
sI35833872
F0.00018669442362798469
sI40454167
F0.0006659483015416533
sI33089199
F0.00018669442362798469
sI22095908
F0.00018669442362798469
sI22095909
F0.00018669442362798469
sI3393575
F0.00018669442362798469
sI7817256
F0.0002757457723928507
sI3139625
F0.00018669442362798469
sI13682730
F0.00018669442362798469
sI1211399
F0.0005841856537521368
sI18527922
F0.0006740922637624747
sI36276271
F0.00018669442362798469
sI36276272
F0.00048027140512256836
sI2787379
F0.00018669442362798469
sI15501364
F0.00018669442362798469
sI31746102
F0.00018669442362798469
sI14174264
F0.00018669442362798469
sI8726588
F0.000674492856602155
sI8726589
F0.0013348146668635762
sI12388414
F0.00018669442362798469
sI10201151
F0.00018669442362798469
sI1706049
F0.00018669442362798469
sI141378
F0.00018669442362798469
sI12388419
F0.00018669442362798469
sI3278924
F0.00018669442362798469
sI18112866
F0.00018669442362798469
sI12453967
F0.00018669442362798469
sI20564049
F0.00018669442362798469
sI1902677
F0.00018669442362798469
sI36038744
F0.00018669442362798469
sI10495674
F0.00018669442362798469
sI35858528
F0.0005411969019941698
sI31500385
F0.00018669442362798469
sI33826915
F0.00018669442362798469
sI21809253
F0.00018669442362798469
sI17565802
F0.00018669442362798469
sI4827253
F0.0006641081265602257
sI8071288
F0.0007414660893159256
sI42322043
F0.00018669442362798469
sI33204349
F0.00018669442362798469
sI33204350
F0.00018669442362798469
sI1599616
F0.00018669442362798469
sI3344513
F0.00018669442362798469
sI33187973
F0.00018669442362798469
sI37849222
F0.00018669442362798469
sI419976
F0.0003285900558923994
sI1591436
F0.00018669442362798469
sI34482318
F0.00018669442362798469
sI32753808
F0.00035556216627570796
sI1435795
F0.00018669442362798469
sI21803375
F0.000674492856602155
sI1566405
F0.00018669442362798469
sI6146208
F0.00018669442362798469
sI862371
F0.00018669442362798469
sI16918214
F0.00018669442362798469
sI5728423
F0.00018669442362798469
sI862377
F0.0003285900558923994
sI9013422
F0.00018669442362798469
sI30779571
F0.00018669442362798469
sI9234612
F0.0006875013104675553
sI665781
F0.0004922361066291544
sI14370998
F0.0003285900558923994
sI15116474
F0.00018669442362798469
sI32417981
F0.00018669442362798469
sI13789376
F0.00018669442362798469
sI13789377
F0.00018669442362798469
sI32715973
F0.00018669442362798469
sI4384460
F0.00018669442362798469
sI4892881
F0.00018669442362798469
sI13560019
F0.00018669442362798469
sI5032160
F0.00018669442362798469
sI21891299
F0.00034579464581408685
sI11610341
F0.0009573249799835145
sI11299048
F0.00018669442362798469
sI10004713
F0.00018669442362798469
sI1362154
F0.000722958953860044
sI18114799
F0.00040092627502090136
sI3852528
F0.00018669442362798469
sI35105017
F0.00018669442362798469
sI21031168
F0.00018669442362798469
sI9406722
F0.00018669442362798469
sI30485547
F0.00018669442362798469
sI8177925
F0.0002969841545521929
sI8890630
F0.00018669442362798469
sI30548353
F0.00018669442362798469
sI710359
F0.00018669442362798469
sI2836749
F0.0003285900558923994
sI370958
F0.0004959077682957413
sI8317206
F0.0005113567534967426
sI9201944
F0.00018669442362798469
sI32532763
F0.00018669442362798469
sI3467548
F0.0007999353024262695
sI3679962
F0.00018669442362798469
sI11290914
F0.00018669442362798469
sI32336183
F0.00018669442362798469
sI3467580
F0.0003225215994940284
sI2115902
F0.00018669442362798469
sI21956932
F0.00018669442362798469
sI33671495
F0.00018669442362798469
sI1231177
F0.00018669442362798469
sI11372874
F0.00018669442362798469
sI1231179
F0.00018669442362798469
sI4494
F0.00018669442362798469
sI20146525
F0.00028103709977772773
sI37497182
F0.00018669442362798469
sI2247018
F0.00018669442362798469
sI616812
F0.00018669442362798469
sI16920978
F0.00018669442362798469
sI43210195
F0.00018669442362798469
sI21383538
F0.00018669442362798469
sI34376051
F0.00018669442362798469
sI682361
F0.0013035917073932473
sI30812539
F0.00018669442362798469
sI2967932
F0.00018669442362798469
sI3967357
F0.00034579464581408685
sI8874371
F0.00018669442362798469
sI4589958
F0.00036424813453323325
sI20236679
F0.00018669442362798469
sI14862739
F0.00018669442362798469
sI37194140
F0.00018669442362798469
sI20105632
F0.00018669442362798469
sI2107809
F0.00018669442362798469
sI37915045
F0.00018669442362798469
sI4474609
F0.00018669442362798469
sI846248
F0.00018669442362798469
sI559530
F0.00018669442362798469
sI13904300
F0.00018669442362798469
sI30411185
F0.00018669442362798469
sI584114
F0.00018669442362798469
sI37194164
F0.00018669442362798469
sI32681033
F0.00023959117702909602
sI1657273
F0.00018669442362798469
sI21637564
F0.00018669442362798469
sI17263037
F0.00018669442362798469
sI13093311
F0.00018669442362798469
sI3729862
F0.00018669442362798469
sI16206280
F0.00018669442362798469
sI1444300
F0.00018669442362798469
sI32238030
F0.00018669442362798469
sI21383634
F0.00018669442362798469
sI34752979
F0.00018669442362798469
sI37194196
F0.0071341929894471875
sI1829336
F0.00018669442362798469
sI215515
F0.00018669442362798469
sI6824357
F0.00018669442362798469
sI16542177
F0.00018669442362798469
sI38971875
F0.00018669442362798469
sI38193637
F0.00018669442362798469
sI3312103
F0.00018669442362798469
sI3312106
F0.00018669442362798469
sI13830639
F0.00018669442362798469
sI3402225
F0.00018669442362798469
sI4573685
F0.00018669442362798469
sI21334519
F0.00018669442362798469
sI11643384
F0.00018669442362798469
sI11643390
F0.00018669442362798469
sI1559041
F0.0006641081265602257
sI31926788
F0.0007231228506639436
sI1264133
F0.00018669442362798469
sI1214982
F0.00018669442362798469
sI1444360
F0.00018669442362798469
sI31926794
F0.0006813151514497725
sI6236684
F0.0002969841545521929
sI35670542
F0.00018669442362798469
sI37915152
F0.00018669442362798469
sI21473809
F0.00018669442362798469
sI37653011
F0.00018669442362798469
sI37653012
F0.00018669442362798469
sI20488622
F0.00018669442362798469
sI31926806
F0.0006795650145238739
sI31926809
F0.0015277313777338766
sI21424668
F0.00018669442362798469
sI4237853
F0.00018669442362798469
sI15247905
F0.0003285900558923994
sI3213861
F0.00018669442362798469
sI3754534
F0.00018669442362798469
sI31926825
F0.0005308949230216074
sI30722602
F0.003342187496214757
sI1108523
F0.0011003928276641698
sI4237868
F0.00018669442362798469
sI4467251
F0.0006875013104675553
sI14371390
F0.00018669442362798469
sI444991
F0.00018669442362798469
sI4237888
F0.00018669442362798469
sI41335904
F0.00018669442362798469
sI3246661
F0.00018669442362798469
sI1116747
F0.00018669442362798469
sI3918415
F0.0018932268523572584
sI13963704
F0.00018669442362798469
sI22096469
F0.00018669442362798469
sI42838614
F0.00018669442362798469
sI18418788
F0.00018669442362798469
sI20490845
F0.0016661635029730977
sI20490846
F0.0009048888033871567
sI30526047
F0.00032231546260607096
sI30526048
F0.00018669442362798469
sI21334630
F0.00018669442362798469
sI21088873
F0.00018669442362798469
sI3967597
F0.00018669442362798469
sI15280751
F0.0026119071816118663
sI15280752
F0.0006170866372509806
sI666226
F0.00018669442362798469
sI35445
F0.00018669442362798469
sI3156601
F0.00018669442362798469
sI20228734
F0.00018669442362798469
sI6502167
F0.00040092627502090136
sI14011022
F0.00018669442362798469
sI42814098
F0.00028103709977772773
sI690835
F0.00018669442362798469
sI41962132
F0.00018669442362798469
sI9587350
F0.00018669442362798469
sI12642971
F0.00018669442362798469
sI3713695
F0.00018669442362798469
sI3558048
F0.0003453846838313187
sI21867173
F0.00018669442362798469
sI15362726
F0.00018669442362798469
sI21768871
F0.00018669442362798469
sI1305264
F0.00018669442362798469
sI7801522
F0.00018669442362798469
sI34310836
F0.00018669442362798469
sI18361013
F0.00018669442362798469
sI10504891
F0.0007407209058706416
sI1739453
F0.00033174122566202334
sI43199166
F0.0006875013104675553
sI7776959
F0.0002757457723928507
sI43199168
F0.001111663304478841
sI3831584
F0.0005375272519167884
sI20662983
F0.00018669442362798469
sI30518391
F0.00018669442362798469
sI4157843
F0.00018669442362798469
sI4180692
F0.00018669442362798469
sI18426581
F0.00018669442362798469
sI1272536
F0.0003225215994940284
sI17607385
F0.00018669442362798469
sI18311899
F0.00018669442362798469
sI920285
F0.001950887857488763
sI5434080
F0.00018669442362798469
sI666338
F0.00018669442362798469
sI42511075
F0.00018669442362798469
sI4606692
F0.000506143766797648
sI1747691
F0.00018669442362798469
sI150256
F0.0003423748289256795
sI30084222
F0.00018669442362798469
sI30608119
F0.00018669442362798469
sI14027512
F0.00018669442362798469
sI30608122
F0.00018669442362798469
sI20630278
F0.00018669442362798469
sI21433095
F0.00018669442362798469
sI3803919
F0.00018669442362798469
sI31419155
F0.00018669442362798469
sI2249177
F0.00018669442362798469
sI21646104
F0.00030703453767472086
sI21646105
F0.00018669442362798469
sI21646106
F0.00018669442362798469
sI2853660
F0.00045575520169138654
sI20425502
F0.00018669442362798469
sI14633761
F0.00018669442362798469
sI3353379
F0.00018669442362798469
sI3353380
F0.00018669442362798469
sI4090661
F0.00018669442362798469
sI3681062
F0.00018669442362798469
sI15595890
F0.0003285900558923994
sI31222583
F0.0003124112723171405
sI2714425
F0.00018669442362798469
sI32076255
F0.00018669442362798469
sI4934461
F0.00018669442362798469
sI9268034
F0.00018669442362798469
sI12954441
F0.00018669442362798469
sI183114
F0.00018669442362798469
sI183116
F0.00018669442362798469
sI21973844
F0.00018669442362798469
sI11365207
F0.00018669442362798469
sI4696923
F0.00018669442362798469
sI16403292
F0.00018669442362798469
sI9440093
F0.00018669442362798469
sI2200038
F0.00018669442362798469
sI21375846
F0.00018669442362798469
sI43158376
F0.00018669442362798469
sI20327273
F0.00018669442362798469
sI2198379
F0.00018669442362798469
sI16403308
F0.00018669442362798469
sI3678697
F0.00018669442362798469
sI732025
F0.0006041329218806958
sI248698
F0.00018669442362798469
sI4635797
F0.00018669442362798469
sI13814658
F0.00018669442362798469
sI41003908
F0.00018669442362798469
sI5802886
F0.00018669442362798469
sI40315783
F0.00018669442362798469
sI30477196
F0.00018669442362798469
sI37661848
F0.0005411969019941698
sI4631445
F0.00018669442362798469
sI4344727
F0.00018669442362798469
sI11742105
F0.00018669442362798469
sI8162202
F0.00018669442362798469
sI40610715
F0.0003453846838313187
sI38357924
F0.00018669442362798469
sI2206629
F0.0002757457723928507
sI22055851
F0.00018669442362798469
sI2788273
F0.00018669442362798469
sI7007155
F0.00041781427757462574
sI4770740
F0.00018669442362798469
sI1616823
F0.00018669442362798469
sI34048955
F0.00018669442362798469
sI3004
F0.00018669442362798469
sI13880258
F0.00018669442362798469
sI18082755
F0.0015761480539349078
sI3132356
F0.00018669442362798469
sI13683654
F0.00018669442362798469
sI10032972
F0.0003225215994940284
sI5483467
F0.00018669442362798469
sI40610764
F0.00023959117702909602
sI21416911
F0.00018669442362798469
sI39701457
F0.00018669442362798469
sI21924825
F0.00018669442362798469
sI32680926
F0.00018669442362798469
sI11742176
F0.00018669442362798469
sI30485473
F0.0005040749440346526
sI2567138
F0.00018669442362798469
sI2509990
F0.00018669442362798469
sI14314470
F0.00018669442362798469
sI31656937
F0.00018669442362798469
sI15006888
F0.00018669442362798469
sI4959220
F0.00018669442362798469
sI5532663
F0.0005877635163668803
sI37211128
F0.00018669442362798469
sI2938708
F0.00018669442362798469
sI232442
F0.0008572543693743432
sI41552892
F0.00018669442362798469
sI15322115
F0.00018669442362798469
sI15322118
F0.00018669442362798469
sI32681132
F0.00018669442362798469
sI2255884
F0.00018669442362798469
sI3316909
F0.0005451698206985355
sI38186000
F0.00018669442362798469
sI12700693
F0.00018669442362798469
sI37800990
F0.00018669442362798469
sI3091497
F0.00043337454858162613
sI4156459
F0.00018669442362798469
sI21376044
F0.00018669442362798469
sI11349037
F0.00018669442362798469
sI41282607
F0.00018669442362798469
sI14273586
F0.00044290593862744227
sI11996213
F0.0003225215994940284
sI40610870
F0.00018669442362798469
sI4213815
F0.00041523727031156826
sI1395779
F0.00018669442362798469
sI96097
F0.00018669442362798469
sI31435848
F0.00027879718712420427
sI20393033
F0.00018669442362798469
sI31730762
F0.00018669442362798469
sI31435854
F0.00045256818327998394
sI31730769
F0.00018669442362798469
sI6597716
F0.00032231546260607096
sI6597717
F0.0002757457723928507
sI715865
F0.0010917722505640966
sI14486619
F0.00018669442362798469
sI35581020
F0.00018669442362798469
sI4369502
F0.00018669442362798469
sI20843616
F0.00018669442362798469
sI1125474
F0.00018669442362798469
sI953444
F0.00018669442362798469
sI37858413
F0.00018669442362798469
sI15109231
F0.001488955912260717
sI2772080
F0.00018669442362798469
sI1174642
F0.00018669442362798469
sI15682676
F0.00018669442362798469
sI478327
F0.00018669442362798469
sI30518392
F0.0008572543693743432
sI32189562
F0.00018669442362798469
sI5074046
F0.00018669442362798469
sI5074047
F0.00018669442362798469
sI2796676
F0.00018669442362798469
sI10873990
F0.00018669442362798469
sI20434056
F0.0006875013104675553
sI32238731
F0.00018669442362798469
sI60556
F0.0005841856537521368
sI32238733
F0.00018669442362798469
sI8071021
F0.000628916949552058
sI1125522
F0.00018669442362798469
sI37563539
F0.00018669442362798469
sI20286616
F0.00018669442362798469
sI8080538
F0.00018669442362798469
sI16845980
F0.00018669442362798469
sI8080542
F0.00018669442362798469
sI6057119
F0.0006060616556783817
sI8318114
F0.00018669442362798469
sI2509989
F0.00033264860651975445
sI20581542
F0.00018669442362798469
sI4607143
F0.00018669442362798469
sI20384937
F0.00018669442362798469
sI16387244
F0.00018669442362798469
sI3746994
F0.00018669442362798469
sI13405364
F0.00036424813453323325
sI7654601
F0.0005451698206985355
sI35581114
F0.00018669442362798469
sI16231612
F0.00018669442362798469
sI7343293
F0.0032264872256252916
sI31435969
F0.0002880695393320955
sI14339271
F0.00018669442362798469
sI478409
F0.00018669442362798469
sI14339275
F0.00018669442362798469
sI15559885
F0.00018669442362798469
sI1699025
F0.0005841856537521368
sI666834
F0.0021239086783919944
sI14339283
F0.00018669442362798469
sI789716
F0.00018669442362798469
sI3681493
F0.00018669442362798469
sI32238809
F0.00018669442362798469
sI31182042
F0.00018669442362798469
sI34065628
F0.00018669442362798469
sI1240286
F0.00018669442362798469
sI1240290
F0.00018669442362798469
sI22047973
F0.00018669442362798469
sI5561327
F0.00018669442362798469
sI32967914
F0.00018669442362798469
sI773355
F0.0012928913845354584
sI6368494
F0.00018669442362798469
sI40709359
F0.0011552270166679036
sI535792
F0.0005551630244396415
sI20761842
F0.00018669442362798469
sI20761844
F0.00018669442362798469
sI4754677
F0.00018669442362798469
sI37383414
F0.00018669442362798469
sI3681492
F0.00018669442362798469
sI20862848
F0.00018669442362798469
sI13419051
F0.00018669442362798469
sI13651205
F0.00018669442362798469
sI5041415
F0.00018669442362798469
sI5041417
F0.00018669442362798469
sI5041423
F0.00018669442362798469
sI9006353
F0.00018669442362798469
sI9006356
F0.00018669442362798469
sI5041430
F0.00018669442362798469
sI3452186
F0.00018669442362798469
sI2600221
F0.00018669442362798469
sI4771105
F0.00018669442362798469
sI2600227
F0.0005877635163668803
sI30911780
F0.00018669442362798469
sI30911782
F0.00018669442362798469
sI5041447
F0.00018669442362798469
sI6843690
F0.00018669442362798469
sI21146923
F0.00033507214381729396
sI32320813
F0.0003285900558923994
sI2600239
F0.00018669442362798469
sI2518320
F0.00018669442362798469
sI5016883
F0.00018669442362798469
sI11136311
F0.0006533649895880854
sI12340537
F0.00018669442362798469
sI35843386
F0.00018669442362798469
sI42560829
F0.00018669442362798469
sI19011468
F0.00018669442362798469
sI35843408
F0.000674492856602155
sI35843409
F0.0010178819904098806
sI3411289
F0.00018669442362798469
sI16182618
F0.00018669442362798469
sI9842020
F0.00018669442362798469
sI7556457
F0.00018669442362798469
sI9133964
F0.00018669442362798469
sI3411310
F0.00018669442362798469
sI14232948
F0.00018669442362798469
sI21581176
F0.00018669442362798469
sI30911866
F0.00018669442362798469
sI4967803
F0.00018669442362798469
sI1002877
F0.0006143911931343198
sI4181374
F0.00018669442362798469
sI15609221
F0.00018669442362798469
sI5074311
F0.000528138080870705
sI30092683
F0.00018669442362798469
sI4155292
F0.00018669442362798469
sI819554
F0.0002757457723928507
sI8998286
F0.002129662832385637
sI39939476
F0.00018669442362798469
sI4967829
F0.00018669442362798469
sI4967830
F0.00018669442362798469
sI43216279
F0.00018669442362798469
sI30919919
F0.00018669442362798469
sI30920095
F0.00018669442362798469
sI4499355
F0.0003423748289256795
sI9678247
F0.00018669442362798469
sI35229096
F0.00018669442362798469
sI35229097
F0.00018669442362798469
sI42487210
F0.00018669442362798469
sI5680557
F0.00068838662672662
sI34925998
F0.00018669442362798469
sI42487217
F0.00018669442362798469
sI10603954
F0.0005163273505381207
sI35525193
F0.00018669442362798469
sI42487224
F0.00018669442362798469
sI7068916
F0.00033174122566202334
sI18083258
F0.00018669442362798469
sI43240891
F0.00018669442362798469
sI2846141
F0.00018669442362798469
sI42487231
F0.00018669442362798469
sI38342080
F0.001091801493737698
sI16592329
F0.00033264860651975445
sI6475213
F0.0003003938134189882
sI2723279
F0.00018669442362798469
sI1797586
F0.00018669442362798469
sI773588
F0.00018669442362798469
sI2204238
F0.00018669442362798469
sI35778008
F0.00018669442362798469
sI20032986
F0.00018669442362798469
sI21179867
F0.0003225215994940284
sI2772447
F0.0003423748289256795
sI21695971
F0.00018669442362798469
sI13872619
F0.00018669442362798469
sI30379504
F0.00018669442362798469
sI6958577
F0.00018669442362798469
sI41651698
F0.00018669442362798469
sI3239415
F0.00018669442362798469
sI5426680
F0.0005411969019941698
sI5026137
F0.005273290352188054
sI32894466
F0.00018669442362798469
sI16035332
F0.00018669442362798469
sI4820487
F0.00018669442362798469
sI40709641
F0.00018669442362798469
sI3509770
F0.00018669442362798469
sI10038795
F0.00018669442362798469
sI257550
F0.00030364776444353716
sI7523856
F0.00018669442362798469
sI7523858
F0.00018669442362798469
sI22040086
F0.00018669442362798469
sI8908312
F0.00018669442362798469
sI14339611
F0.0016904867097462097
sI32697884
F0.0008234674168521519
sI1682973
F0.00018669442362798469
sI37641477
F0.00018669442362798469
sI1682977
F0.00018669442362798469
sI10120741
F0.00018669442362798469
sI31469100
F0.00018669442362798469
sI30322228
F0.00018669442362798469
sI33517112
F0.00018669442362798469
sI9211449
F0.00018669442362798469
sI40280671
F0.00018669442362798469
sI30797373
F0.00018669442362798469
sI1969728
F0.00018669442362798469
sI38646368
F0.0006875013104675553
sI3681861
F0.00018669442362798469
sI1969735
F0.00018669442362798469
sI39333452
F0.00018669442362798469
sI21922402
F0.00018669442362798469
sI39333454
F0.00018669442362798469
sI39292495
F0.00018669442362798469
sI12660305
F0.00018669442362798469
sI16641618
F0.0003453846838313187
sI33590867
F0.00018669442362798469
sI21474903
F0.00018669442362798469
sI21474904
F0.00018669442362798469
sI38727259
F0.00018669442362798469
sI16641628
F0.003201807061726655
sI34229869
F0.00018669442362798469
sI511598
F0.00018669442362798469
sI11644532
F0.00043683748222907127
sI37777013
F0.0005475630375751807
sI11205908
F0.00018669442362798469
sI12504700
F0.00018669442362798469
sI3673728
F0.00018669442362798469
sI33197697
F0.00018669442362798469
sI14776257
F0.00018669442362798469
sI6844040
F0.0014059324534445672
sI30158474
F0.00018669442362798469
sI315021
F0.00018669442362798469
sI42888846
F0.00018669442362798469
sI12889743
F0.00018669442362798469
sI3419794
F0.00018669442362798469
sI3460756
F0.00018669442362798469
sI17673886
F0.0005208747543205399
sI2903715
F0.00018669442362798469
sI3796648
F0.00018669442362798469
sI1629468
F0.00018669442362798469
sI42503850
F0.00018669442362798469
sI2320327
F0.00018669442362798469
sI42503852
F0.00018669442362798469
sI1658543
F0.00018669442362798469
sI921265
F0.00018669442362798469
sI4091571
F0.00018669442362798469
sI2412216
F0.00018669442362798469
sI921276
F0.00018669442362798469
sI11341502
F0.00018669442362798469
sI63435
F0.001495002570112531
sI32394948
F0.014964375577197944
sI13987105
F0.0003285900558923994
sI41021128
F0.00018669442362798469
sI282314
F0.00018669442362798469
sI10727116
F0.00018669442362798469
sI10727117
F0.00018669442362798469
sI16486095
F0.00018669442362798469
sI39808722
F0.00018669442362798469
sI13594323
F0.00018669442362798469
sI6811352
F0.000935947213461819
sI1363676
F0.00018669442362798469
sI10587870
F0.00018669442362798469
sI43224799
F0.00018669442362798469
sI43224801
F0.00018669442362798469
sI14044906
F0.00018669442362798469
sI12627691
F0.00018669442362798469
sI14307053
F0.00018669442362798469
sI8793838
F0.00018669442362798469
sI1513427
F0.001678771508518989
sI33649278
F0.00018669442362798469
sI53887
F0.00018669442362798469
sI3649283
F0.00018669442362798469
sI3518213
F0.00018669442362798469
sI184072
F0.00018669442362798469
sI10702602
F0.00018669442362798469
sI3649291
F0.00018669442362798469
sI10964755
F0.00018669442362798469
sI37977391
F0.00018669442362798469
sI16002844
F0.00018669442362798469
sI37182768
F0.00018669442362798469
sI15404837
F0.00018669442362798469
sI11693862
F0.00018669442362798469
sI1134381
F0.00018669442362798469
sI937775
F0.0005841856537521368
sI11112244
F0.00018669442362798469
sI2838325
F0.00018669442362798469
sI98953
F0.00018669442362798469
sI2838328
F0.0009556157077239642
sI34811705
F0.00018669442362798469
sI13581621
F0.00018669442362798469
sI2838338
F0.00018669442362798469
sI36654915
F0.00018669442362798469
sI9047878
F0.00018669442362798469
sI34498530
F0.00018669442362798469
sI30519125
F0.00018669442362798469
sI30519126
F0.00018669442362798469
sI30519127
F0.00018669442362798469
sI32239450
F0.00018669442362798469
sI42560826
F0.00018669442362798469
sI8834914
F0.00018669442362798469
sI32370531
F0.00018669442362798469
sI15028076
F0.00033264860651975445
sI9056110
F0.00018669442362798469
sI5181296
F0.00018669442362798469
sI3608433
F0.00018669442362798469
sI2281333
F0.00018669442362798469
sI35745654
F0.00018669442362798469
sI21032826
F0.00018669442362798469
sI3608445
F0.00018669442362798469
sI1634176
F0.00018669442362798469
sI4513088
F0.00018669442362798469
sI3960709
F0.0003423748289256795
sI3559303
F0.00018669442362798469
sI3985293
F0.000863898322861899
sI3985294
F0.000590965363724526
sI3985295
F0.000863898322861899
sI39137168
F0.00018669442362798469
sI9228178
F0.00018669442362798469
sI40341398
F0.00018669442362798469
sI12643032
F0.00018669442362798469
sI4513092
F0.00018669442362798469
sI3657630
F0.00018669442362798469
sI32419743
F0.00018669442362798469
sI364448
F0.00044290593862744227
sI4343792
F0.00018669442362798469
sI2797474
F0.0003285900558923994
sI3985316
F0.000590965363724526
sI3985317
F0.00018669442362798469
sI3968934
F0.00018669442362798469
sI4394919
F0.0005841856537521368
sI4534185
F0.00018669442362798469
sI4534186
F0.00018669442362798469
sI20230059
F0.00018669442362798469
sI1331116
F0.00018669442362798469
sI9490350
F0.00018669442362798469
sI36532143
F0.00018669442362798469
sI36532144
F0.00018669442362798469
sI4390216
F0.00018669442362798469
sI4804537
F0.00018669442362798469
sI667578
F0.00040092627502090136
sI17059774
F0.00018669442362798469
sI13103039
F0.00018669442362798469
sI2453443
F0.00018669442362798469
sI33877956
F0.0005040749440346526
sI8299170
F0.0022353482342163783
sI3518415
F0.00018669442362798469
sI1355728
F0.0003285900558923994
sI13103057
F0.00018669442362798469
sI36745173
F0.0005163273505381207
sI50848267
F0.00018669442362798469
sI9203674
F0.0016217557699285702
sI1748960
F0.00018669442362798469
sI10211297
F0.00018669442362798469
sI3665896
F0.00018669442362798469
sI3665907
F0.00018669442362798469
sI3373054
F0.0005208747543205399
sI11072169
F0.00018669442362798469
sI21016580
F0.0006875013104675553
sI10170373
F0.00018669442362798469
sI528390
F0.00018669442362798469
sI528391
F0.0003285900558923994
sI528393
F0.0003285900558923994
sI4919306
F0.00018669442362798469
sI45071
F0.00018669442362798469
sI11390997
F0.00018669442362798469
sI20680726
F0.00018669442362798469
sI1568791
F0.00018669442362798469
sI3371032
F0.00018669442362798469
sI2830361
F0.00018669442362798469
sI20680733
F0.0004185155567639539
sI41971747
F0.00018669442362798469
sI16666662
F0.00018669442362798469
sI14618663
F0.00018669442362798469
sI978986
F0.00018669442362798469
sI978988
F0.00018669442362798469
sI716852
F0.0003270147361456438
sI716853
F0.0003270147361456438
sI3241993
F0.00018669442362798469
sI11284549
F0.00018669442362798469
sI21288973
F0.00018669442362798469
sI1716307
F0.00018669442362798469
sI30855252
F0.0003225215994940284
sI14970966
F0.0003285900558923994
sI37524153
F0.00018669442362798469
sI14438491
F0.0002880695393320955
sI9999034
F0.00018669442362798469
sI9244769
F0.00018669442362798469
sI348261
F0.00018669442362798469
sI348262
F0.0005226248912464385
sI40783977
F0.00018669442362798469
sI40783978
F0.00018669442362798469
sI15470701
F0.0017880113911556735
sI14438514
F0.00027879718712420427
sI38547572
F0.00018669442362798469
sI2584694
F0.00018669442362798469
sI6719865
F0.0008483301003881686
sI42299520
F0.00018669442362798469
sI3911815
F0.00018669442362798469
sI37023883
F0.00018669442362798469
sI4747408
F0.00018669442362798469
sI3281043
F0.00018669442362798469
sI33452183
F0.00018669442362798469
sI20390596
F0.00018669442362798469
sI3518620
F0.00018669442362798469
sI31508159
F0.00018669442362798469
sI2969759
F0.00018669442362798469
sI21917858
F0.00018669442362798469
sI20943011
F0.00018669442362798469
sI32223400
F0.00018669442362798469
sI2551978
F0.00018669442362798469
sI2551979
F0.00018669442362798469
sI13340849
F0.00018669442362798469
sI471221
F0.00018669442362798469
sI20893879
F0.00018669442362798469
sI4092089
F0.00018669442362798469
sI32428222
F0.0003225215994940284
sI5738688
F0.00018669442362798469
sI20484290
F0.00018669442362798469
sI299205
F0.00018669442362798469
sI3281096
F0.00018669442362798469
sI37540041
F0.00018669442362798469
sI30003402
F0.00018669442362798469
sI32251255
F0.00018669442362798469
sI4911310
F0.00018669442362798469
sI14258386
F0.00018669442362798469
sI5689555
F0.00028103709977772773
sI1159380
F0.00018669442362798469
sI15323349
F0.00018669442362798469
sI1159386
F0.00018669442362798469
sI1337381
F0.00018669442362798469
sI14717152
F0.00018669442362798469
sI1986792
F0.00018669442362798469
sI21860585
F0.00018669442362798469
sI413931
F0.0007454394749528968
sI1273213
F0.001017950879656843
sI40825074
F0.00018669442362798469
sI38646004
F0.00018669442362798469
sI42479863
F0.00018669442362798469
sI839930
F0.00018669442362798469
sI32108795
F0.00018669442362798469
sI30626049
F0.00018669442362798469
sI14205654
F0.00018669442362798469
sI18682126
F0.00018669442362798469
sI18682128
F0.00018669442362798469
sI12136722
F0.0011092454627332474
sI1110295
F0.00018669442362798469
sI21279001
F0.0005841856537521368
sI12136730
F0.00018669442362798469
sI20546266
F0.00018669442362798469
sI12136742
F0.00018669442362798469
sI32346410
F0.00018669442362798469
sI20623659
F0.00018669442362798469
sI13193519
F0.00018669442362798469
sI37859633
F0.00018669442362798469
sI1233203
F0.00018669442362798469
sI41062711
F0.00018669442362798469
sI4198715
F0.00018669442362798469
sI42078524
F0.00018669442362798469
sI41062717
F0.00018669442362798469
sI1806654
F0.000894119545730892
sI2224450
F0.00018669442362798469
sI30134595
F0.00018669442362798469
sI1806662
F0.00018669442362798469
sI4198727
F0.00048027140512256836
sI1806664
F0.00018669442362798469
sI4868152
F0.00018669442362798469
sI12964178
F0.00018669442362798469
sI20025685
F0.00018669442362798469
sI17633625
F0.0035071550185764425
sI14061917
F0.00018669442362798469
sI32084320
F0.00018669442362798469
sI15569252
F0.00018669442362798469
sI201063
F0.00018669442362798469
sI4239721
F0.00018669442362798469
sI4182378
F0.00018669442362798469
sI11981163
F0.0019396581575309658
sI40825199
F0.00018669442362798469
sI9195894
F0.0006641081265602257
sI18256247
F0.00018669442362798469
sI18704447
F0.00018669442362798469
sI78205
F0.0003423748289256795
sI17830270
F0.00018669442362798469
sI4182399
F0.00018669442362798469
sI3078208
F0.00018669442362798469
sI30962050
F0.00018669442362798469
sI30962051
F0.00018669442362798469
sI32076164
F0.00018669442362798469
sI31707530
F0.00018669442362798469
sI9220492
F0.00018669442362798469
sI34689421
F0.0006108564176392704
sI2855310
F0.0009801457246446546
sI2331026
F0.0011095580199534899
sI5665171
F0.001119058205301264
sI22106516
F0.00018669442362798469
sI4460956
F0.00018669442362798469
sI8982943
F0.00018669442362798469
sI21257819
F0.0003270147361456438
sI3101094
F0.00018669442362798469
sI20728475
F0.00018669442362798469
sI20861356
F0.0004623929048552582
sI3985837
F0.00018669442362798469
sI3985843
F0.00018669442362798469
sI39809462
F0.00018669442362798469
sI13963703
F0.00018669442362798469
sI39809464
F0.00018669442362798469
sI3092924
F0.00018669442362798469
sI975605
F0.0013591753942464872
sI8352194
F0.00018669442362798469
sI717254
F0.00018669442362798469
sI12410274
F0.00018669442362798469
sI7718989
F0.0013402061511624244
sI3371472
F0.00018669442362798469
sI13373907
F0.006039266068263315
sI38056408
F0.00018669442362798469
sI5231065
F0.00018669442362798469
sI8092791
F0.00018669442362798469
sI561629
F0.0003285900558923994
sI10613215
F0.00018669442362798469
sI41931238
F0.000490912948652121
sI33927657
F0.00018669442362798469
sI3183085
F0.00018669442362798469
sI4755950
F0.00018669442362798469
sI12046832
F0.00018669442362798469
sI14986664
F0.001111663304478841
sI3322354
F0.00018669442362798469
sI791029
F0.00033264860651975445
sI791031
F0.0006554595516227436
sI14725628
F0.00018669442362798469
sI20926975
F0.00018669442362798469
sI2159104
F0.00018669442362798469
sI10443632
F0.00018669442362798469
sI37941762
F0.00018669442362798469
sI34805846
F0.00018669442362798469
sI18451163
F0.00018669442362798469
sI1446407
F0.00018669442362798469
sI14848520
F0.00018669442362798469
sI20172148
F0.00018669442362798469
sI41620226
F0.00018669442362798469
sI21095966
F0.00018669442362798469
sI40161825
F0.00018669442362798469
sI21910051
F0.00018669442362798469
sI4436516
F0.00018669442362798469
sI1380902
F0.00036424813453323325
sI1905192
F0.00018669442362798469
sI18551338
F0.00018669442362798469
sI4108844
F0.00018669442362798469
sI20877873
F0.00018669442362798469
sI6689333
F0.00018669442362798469
sI6689335
F0.00018669442362798469
sI987705
F0.0003285900558923994
sI4657722
F0.00018669442362798469
sI520763
F0.0015918168191921005
sI4223548
F0.00018669442362798469
sI987710
F0.00018669442362798469
sI15774272
F0.00018669442362798469
sI6625770
F0.0003259443005752681
sI930371
F0.00018669442362798469
sI20107847
F0.00018669442362798469
sI35525192
F0.00018669442362798469
sI32346697
F0.00018669442362798469
sI1675853
F0.0007260812860165515
sI975629
F0.00018669442362798469
sI3385443
F0.00018669442362798469
sI41214734
F0.00018669442362798469
sI10416728
F0.00018669442362798469
sI13611613
F0.000564929325913046
sI30700128
F0.00018669442362798469
sI971536
F0.00018669442362798469
sI1273275
F0.00018669442362798469
sI7733541
F0.00018669442362798469
sI5083459
F0.00018669442362798469
sI12374638
F0.00018669442362798469
sI6115954
F0.00018669442362798469
sI31650421
F0.00018669442362798469
sI4231803
F0.00018669442362798469
sI18461308
F0.00018669442362798469
sI488061
F0.00018669442362798469
sI488062
F0.001091801493737698
sI11235967
F0.00018669442362798469
sI126400
F0.0006641081265602257
sI32141959
F0.00018669442362798469
sI32141960
F0.00018669442362798469
sI3347082
F0.0003894313304299087
sI2454169
F0.00018669442362798469
sI12260003
F0.00018669442362798469
sI20828837
F0.0003423748289256795
sI1397416
F0.00018669442362798469
sI2536105
F0.00041781427757462574
sI4731571
F0.00018669442362798469
sI16093877
F0.00018669442362798469
sI30831287
F0.0004971038307899392
sI275128
F0.0003423748289256795
sI40415929
F0.00018669442362798469
sI14176954
F0.00018669442362798469
sI41841339
F0.00034579464581408685
sI15322081
F0.00018669442362798469
sI35828420
F0.00018669442362798469
sI7410373
F0.00030687452131023245
sI36632397
F0.00018669442362798469
sI3183303
F0.00018669442362798469
sI3855055
F0.00018669442362798469
sI13297784
F0.00018669442362798469
sI43111124
F0.00018669442362798469
sI1921752
F0.0002757457723928507
sI8843998
F0.00018669442362798469
sI2429664
F0.00018669442362798469
sI2380515
F0.00018669442362798469
sI21279463
F0.00018669442362798469
sI16069354
F0.00018669442362798469
sI34394861
F0.0003453846838313187
sI15913710
F0.00632603638459743
sI1233647
F0.000832264846028471
sI9843440
F0.00018669442362798469
sI8844018
F0.00018669442362798469
sI8844019
F0.00018669442362798469
sI32633589
F0.00018669442362798469
sI10736374
F0.00018669442362798469
sI8844023
F0.00018669442362798469
sI41874168
F0.00018669442362798469
sI4551422
F0.00018669442362798469
sI21247
F0.00018669442362798469
sI3248896
F0.00018669442362798469
sI31666945
F0.00018669442362798469
sI365314
F0.00018669442362798469
sI41620227
F0.00018669442362798469
sI42496772
F0.00018669442362798469
sI35574533
F0.00018669442362798469
sI7140102
F0.0006554595516227436
sI17838502
F0.000881743368267736
sI15610632
F0.00018669442362798469
sI3126027
F0.00018669442362798469
sI34263824
F0.00018669442362798469
sI45844
F0.00018669442362798469
sI14373655
F0.00018669442362798469
sI8803098
F0.00018669442362798469
sI29468
F0.0013117424152854643
sI36500646
F0.00018669442362798469
sI635685
F0.00018669442362798469
sI16069414
F0.00018669442362798469
sI21066537
F0.00018669442362798469
sI7959338
F0.00018669442362798469
sI31707950
F0.00018669442362798469
sI20048008
F0.00018669442362798469
sI987954
F0.00018669442362798469
sI2913080
F0.00018669442362798469
sI18961212
F0.00018669442362798469
sI13062979
F0.00018669442362798469
sI7533381
F0.00018669442362798469
sI619334
F0.00018669442362798469
sI14914377
F0.00018669442362798469
sI586571
F0.00018669442362798469
sI31658833
F0.00018669442362798469
sI4207447
F0.00018669442362798469
sI43070298
F0.00018669442362798469
sI43070301
F0.00018669442362798469
sI13579109
F0.0003423748289256795
sI2478950
F0.0004842704611900943
sI1512295
F0.00018669442362798469
sI21427004
F0.00018669442362798469
sI31822702
F0.0004328602470315182
sI21042031
F0.00018669442362798469
sI7280731
F0.00018669442362798469
sI21042036
F0.00018669442362798469
sI15078264
F0.00018669442362798469
sI38118207
F0.00018669442362798469
sI18264956
F0.0038209617598418855
sI11318148
F0.00018669442362798469
sI2388870
F0.00018669442362798469
sI1381255
F0.00018669442362798469
sI15078280
F0.00018669442362798469
sI13655532
F0.00018669442362798469
sI1381258
F0.0010184496982575675
sI33239955
F0.00018669442362798469
sI18486165
F0.00018669442362798469
sI12834969
F0.00018669442362798469
sI34374468
F0.00018669442362798469
sI3969947
F0.00018669442362798469
sI3986333
F0.0010917722505640966
sI5116833
F0.0003285900558923994
sI51221413
F0.00018669442362798469
sI422824
F0.0007372015272454368
sI7164841
F0.00018669442362798469
sI9122736
F0.00018669442362798469
sI30774195
F0.00018669442362798469
sI988087
F0.00018669442362798469
sI33261727
F0.00018669442362798469
sI41751490
F0.00018669442362798469
sI21263302
F0.00018669442362798469
sI12342219
F0.00045575520169138654
sI40326099
F0.00018669442362798469
sI32707545
F0.00018669442362798469
sI4581541
F0.00018669442362798469
sI1283044
F0.00018669442362798469
sI12342247
F0.0006141555560556246
sI12342249
F0.0008504813866460596
sI40530925
F0.00018669442362798469
sI5895154
F0.007076759879677233
sI38609747
F0.00018669442362798469
sI4010997
F0.00018669442362798469
sI21919914
F0.00018669442362798469
sI33657854
F0.00018669442362798469
sI3216386
F0.0005617318349582155
sI13644803
F0.00018669442362798469
sI1971204
F0.00018669442362798469
sI42505221
F0.00018669442362798469
sI13644806
F0.00018669442362798469
sI1971207
F0.00018669442362798469
sI42963977
F0.00018669442362798469
sI38908938
F0.00018669442362798469
sI8549387
F0.00018669442362798469
sI30897164
F0.0006875013104675553
sI20025681
F0.00018669442362798469
sI9253907
F0.0005113567534967426
sI955415
F0.00018669442362798469
sI16471067
F0.00018669442362798469
sI1537052
F0.0006641081265602257
sI21402653
F0.00018669442362798469
sI4191265
F0.00018669442362798469
sI20673579
F0.0003453846838313187
sI6628189
F0.00018669442362798469
sI1750065
F0.00018669442362798469
sI1332283
F0.00018669442362798469
sI41651722
F0.00018669442362798469
sI13921803
F0.0006641081265602257
sI12440652
F0.0007998715243978452
sI14038095
F0.00018669442362798469
sI10638417
F0.00018669442362798469
sI20475406
F0.00018669442362798469
sI17781846
F0.0008532164817605396
sI14988375
F0.00018669442362798469
sI30512221
F0.00018669442362798469
sI40719455
F0.00018669442362798469
sI20475408
F0.00018669442362798469
sI6902884
F0.00018669442362798469
sI1782890
F0.00018669442362798469
sI18510956
F0.00018669442362798469
sI324717
F0.00018669442362798469
sI9791677
F0.00018669442362798469
sI15369065
F0.00018669442362798469
sI70776
F0.00018669442362798469
sI1504377
F0.00018669442362798469
sI70784
F0.00018669442362798469
sI12642496
F0.00018669442362798469
sI9786498
F0.00018669442362798469
sI70787
F0.00018669442362798469
sI14881929
F0.0005469182885741128
sI13186186
F0.00018669442362798469
sI9221260
F0.00018669442362798469
sI14881934
F0.0007405331528179363
sI31945874
F0.000674492856602155
sI857236
F0.0009203196415596833
sI39110356
F0.00018669442362798469
sI30275781
F0.00018669442362798469
sI10038811
F0.00018669442362798469
sI1504422
F0.00018669442362798469
sI36500648
F0.00018669442362798469
sI30682652
F0.00018669442362798469
sI38859949
F0.00018669442362798469
sI21909021
F0.00018669442362798469
sI42833075
F0.00018669442362798469
sI30897335
F0.018264721555195602
sI12923764
F0.00018669442362798469
sI9163966
F0.00018669442362798469
sI40256373
F0.00018669442362798469
sI13522112
F0.00018669442362798469
sI32134341
F0.00018669442362798469
sI2757837
F0.00018669442362798469
sI1701073
F0.00018669442362798469
sI2757842
F0.00018669442362798469
sI2651349
F0.005489155145115533
sI16340182
F0.00018669442362798469
sI5059799
F0.00018669442362798469
sI34329821
F0.0005040749440346526
sI1954119
F0.00018669442362798469
sI660709
F0.00018669442362798469
sI5223661
F0.00018669442362798469
sI42779517
F0.00018669442362798469
sI7779571
F0.000528138080870705
sI22148345
F0.00018669442362798469
sI3462400
F0.00018669442362798469
sI34411777
F0.00018669442362798469
sI34411779
F0.00018669442362798469
sI4856799
F0.00018669442362798469
sI1147777
F0.00018669442362798469
sI3805768
F0.00018669442362798469
sI12645641
F0.00018669442362798469
sI40375562
F0.00018669442362798469
sI42759437
F0.00018669442362798469
sI4150543
F0.00018669442362798469
sI10974480
F0.0004252065512595725
sI4117787
F0.00018669442362798469
sI3738937
F0.00018669442362798469
sI11580712
F0.00018669442362798469
sI242567
F0.00018669442362798469
sI1135920
F0.00018669442362798469
sI21021576
F0.00018669442362798469
sI2897208
F0.00018669442362798469
sI39695674
F0.00018669442362798469
sI20157755
F0.00018669442362798469
sI1635646
F0.00018669442362798469
sI17732927
F0.00034579464581408685
sI20657472
F0.00018669442362798469
sI11670851
F0.00018669442362798469
sI3601736
F0.00018669442362798469
sI3601744
F0.00018669442362798469
sI13053496
F0.00018669442362798469
sI12645718
F0.00018669442362798469
sI4126040
F0.00018669442362798469
sI21337437
F0.00018669442362798469
sI11031904
F0.00018669442362798469
sI30725474
F0.00018669442362798469
sI22017382
F0.00048027140512256836
sI2512234
F0.00018669442362798469
sI32187282
F0.00018669442362798469
sI37786993
F0.00018669442362798469
sI38628463
F0.00018669442362798469
sI42022261
F0.0004922361066291544
sI42022263
F0.0005306512652833973
sI710013
F0.00018669442362798469
sI3749254
F0.00018669442362798469
sI12825991
F0.00018669442362798469
sI14726541
F0.00018669442362798469
sI12825998
F0.00018669442362798469
sI529807
F0.00018669442362798469
sI21853586
F0.00018669442362798469
sI12400020
F0.00018669442362798469
sI3274136
F0.00018669442362798469
sI11441564
F0.00018669442362798469
sI15136157
F0.00018669442362798469
sI11441567
F0.00018669442362798469
sI6780324
F0.00018669442362798469
sI13219244
F0.00018669442362798469
sI1160621
F0.00018669442362798469
sI9196974
F0.00018669442362798469
sI30791087
F0.00018669442362798469
sI30750137
F0.00018669442362798469
sI2356667
F0.00018669442362798469
sI20174271
F0.0005475630375751807
sI20174273
F0.0005179257338509823
sI120260
F0.00018669442362798469
sI2356677
F0.00018669442362798469
sI1160646
F0.00018669442362798469
sI34943905
F0.00018669442362798469
sI9827785
F0.00018669442362798469
sI13153739
F0.00018669442362798469
sI37778892
F0.00018669442362798469
sI13153741
F0.00018669442362798469
sI1528859
F0.00018669442362798469
sI2697405
F0.00018669442362798469
sI21845463
F0.00018669442362798469
sI30848472
F0.00018669442362798469
sI3749337
F0.00018669442362798469
sI3896794
F0.0006641081265602257
sI6501853
F0.00018669442362798469
sI30414302
F0.00018669442362798469
sI39818719
F0.00018669442362798469
sI39818720
F0.00018669442362798469
sI10868988
F0.00045575520169138654
sI16266733
F0.00018669442362798469
sI5264881
F0.00018669442362798469
sI42513908
F0.0006533649895880854
sI33658358
F0.00018669442362798469
sI734121
F0.00018669442362798469
sI14605908
F0.00018669442362798469
sI31405562
F0.00018669442362798469
sI40891899
F0.00018669442362798469
sI10232747
F0.00018669442362798469
sI21458519
F0.00018669442362798469
sI33077485
F0.0006533649895880854
sI980496
F0.00018669442362798469
sI980497
F0.00018669442362798469
sI20141590
F0.00018669442362798469
sI21257817
F0.00018669442362798469
sI33977882
F0.00018669442362798469
sI15210012
F0.00018669442362798469
sI2545181
F0.00018669442362798469
sI2545184
F0.00018669442362798469
sI4503073
F0.00018669442362798469
sI32380450
F0.00018669442362798469
sI12500571
F0.00018669442362798469
sI6731305
F0.00018669442362798469
sI19054866
F0.00018669442362798469
sI4625762
F0.00018669442362798469
sI20903472
F0.00018669442362798469
sI4585011
F0.00018669442362798469
sI8115766
F0.00018669442362798469
sI8689208
F0.00018669442362798469
sI12973625
F0.00018669442362798469
sI12274462
F0.00018669442362798469
sI18757182
F0.00018669442362798469
sI20272705
F0.00018669442362798469
sI20272706
F0.00018669442362798469
sI890436
F0.00018669442362798469
sI31405638
F0.00018669442362798469
sI40654407
F0.00018669442362798469
sI3143241
F0.00018669442362798469
sI30373451
F0.00018669442362798469
sI15652428
F0.00018669442362798469
sI22009421
F0.00018669442362798469
sI677455
F0.00018669442362798469
sI20633169
F0.00018669442362798469
sI6346328
F0.0008234674168521519
sI6346330
F0.001361838832065293
sI21755492
F0.00018669442362798469
sI2618981
F0.0003285900558923994
sI5486187
F0.0002757457723928507
sI7075436
F0.00018669442362798469
sI12580462
F0.00018669442362798469
sI12580463
F0.0002757457723928507
sI17815154
F0.00018669442362798469
sI20461171
F0.00018669442362798469
sI33519221
F0.00018669442362798469
sI10253943
F0.00018669442362798469
sI21468794
F0.0003225215994940284
sI12580477
F0.00032231546260607096
sI21768869
F0.00018669442362798469
sI5486209
F0.00018669442362798469
sI5486215
F0.0002757457723928507
sI17187400
F0.00018669442362798469
sI5486218
F0.00018669442362798469
sI14218891
F0.00018669442362798469
sI33494670
F0.00018669442362798469
sI1789549
F0.0003225215994940284
sI31200913
F0.00018669442362798469
sI9336466
F0.00018669442362798469
sI17266328
F0.00018669442362798469
sI87705
F0.00018669442362798469
sI20485786
F0.00018669442362798469
sI20682397
F0.00018669442362798469
sI32274083
F0.00018669442362798469
sI43242438
F0.0006108564176392704
sI40261288
F0.00018669442362798469
sI13285034
F0.00018669442362798469
sI22132399
F0.0032277425682879705
sI2954930
F0.00018669442362798469
sI10958518
F0.00018669442362798469
sI21316553
F0.00018669442362798469
sI7845560
F0.0007155890513059174
sI34051770
F0.00018669442362798469
sI21149372
F0.00018669442362798469
sI30807746
F0.00018669442362798469
sI14546629
F0.00018669442362798469
sI21632717
F0.00018669442362798469
sI18593487
F0.00018669442362798469
sI7075537
F0.0009896398823152988
sI21632722
F0.00018669442362798469
sI21632723
F0.00018669442362798469
sI7075540
F0.0014964626791542646
sI13080278
F0.00018669442362798469
sI1382103
F0.00018669442362798469
sI50829018
F0.00018669442362798469
sI10847184
F0.00018669442362798469
sI15152866
F0.00018669442362798469
sI38450919
F0.00018669442362798469
sI38450920
F0.00018669442362798469
sI31987440
F0.00018669442362798469
sI3995382
F0.00018669442362798469
sI17553145
F0.00018669442362798469
sI17553146
F0.00018669442362798469
sI3810968
F0.00018669442362798469
sI7071265
F0.00018669442362798469
sI2594582
F0.00018669442362798469
sI2832151
F0.00018669442362798469
sI4093720
F0.00018669442362798469
sI33928986
F0.00018669442362798469
sI1521436
F0.00045575520169138654
sI2594589
F0.00018669442362798469
sI42948383
F0.00018669442362798469
sI14456608
F0.00018669442362798469
sI800546
F0.00018669442362798469
sI20608824
F0.00018669442362798469
sI14350142
F0.00018669442362798469
sI2258752
F0.00018669442362798469
sI14047041
F0.0014551216201816838
sI14339284
F0.00018669442362798469
sI2431286
F0.00018669442362798469
sI1005385
F0.00018669442362798469
sI37836618
F0.00018669442362798469
sI1005388
F0.00018669442362798469
sI17348429
F0.00018669442362798469
sI4618063
F0.0003744778983203457
sI800596
F0.00018669442362798469
sI14366551
F0.00018669442362798469
sI13711194
F0.00018669442362798469
sI6190944
F0.00018669442362798469
sI6190945
F0.00018669442362798469
sI309090
F0.00018669442362798469
sI6190950
F0.00018669442362798469
sI13825901
F0.0004252065512595725
sI17536879
F0.00033174122566202334
sI12539760
F0.00018669442362798469
sI7772018
F0.00018669442362798469
sI202612
F0.0004842704611900943
sI41736056
F0.00018669442362798469
sI35278484
F0.00018669442362798469
sI2275194
F0.00018669442362798469
sI37336959
F0.00018669442362798469
sI39999360
F0.00018669442362798469
sI15618909
F0.00030687452131023245
sI7772039
F0.0007963002296510648
sI1357704
F0.00018669442362798469
sI17736684
F0.00018669442362798469
sI9000844
F0.0003894313304299087
sI9000845
F0.00045329483684894846
sI1357716
F0.00018669442362798469
sI661397
F0.00018669442362798469
sI21247902
F0.00018669442362798469
sI34173939
F0.0007756068860534602
sI20466343
F0.00018669442362798469
sI1980344
F0.00018669442362798469
sI2234302
F0.0012172797619820726
sI10000321
F0.00018669442362798469
sI2070470
F0.00018669442362798469
sI36927431
F0.00018669442362798469
sI5224395
F0.00018669442362798469
sI6096
F0.00018669442362798469
sI1193938
F0.00018669442362798469
sI1193939
F0.00018669442362798469
sI13055959
F0.00018669442362798469
sI1513433
F0.0004211162628273914
sI20830171
F0.00018669442362798469
sI20199400
F0.00048027140512256836
sI1513449
F0.00018669442362798469
sI13531114
F0.00018669442362798469
sI38155113
F0.00018669442362798469
sI8411120
F0.0002757457723928507
sI1939454
F0.002502370424795767
sI4478976
F0.00018669442362798469
sI39139332
F0.00018669442362798469
sI4945929
F0.00018669442362798469
sI37337100
F0.00018669442362798469
sI14383117
F0.001049998311124904
sI32110608
F0.00018669442362798469
sI32479250
F0.0004252065512595725
sI366611
F0.0003285900558923994
sI4847638
F0.00018669442362798469
sI1136664
F0.0003423748289256795
sI15025459
F0.000590965363724526
sI13957156
F0.00018669442362798469
sI1939493
F0.0005411969019941698
sI309538
F0.00018669442362798469
sI14383145
F0.00018669442362798469
sI40706450
F0.00018669442362798469
sI1202224
F0.00018669442362798469
sI9140274
F0.0008793501513910907
sI33484914
F0.00018669442362798469
sI20715579
F0.00018669442362798469
sI963594
F0.0012446287230619864
sI8714304
F0.0006875013104675553
sI6936644
F0.00727176983509317
sI32061509
F0.00018669442362798469
sI15792198
F0.00018669442362798469
sI15792201
F0.00018669442362798469
sI15792202
F0.0033604973219299897
sI9779275
F0.00018669442362798469
sI11417681
F0.00018669442362798469
sI34330706
F0.00018669442362798469
sI1344526
F0.00018669442362798469
sI50821206
F0.00018669442362798469
sI1153112
F0.0005113567534967426
sI7108698
F0.00018669442362798469
sI21854299
F0.00018669442362798469
sI13088862
F0.00018669442362798469
sI14465119
F0.00018669442362798469
sI35706982
F0.00018669442362798469
sI1161319
F0.0003285900558923994
sI12529340
F0.00018669442362798469
sI30832749
F0.0008362510715658477
sI30832750
F0.0006875013104675553
sI3452606
F0.00018669442362798469
sI32536695
F0.00018669442362798469
sI14325887
F0.00018669442362798469
sI3913856
F0.00018669442362798469
sI3079872
F0.00018669442362798469
sI11530453
F0.00018669442362798469
sI2381955
F0.00018669442362798469
sI9730182
F0.00018669442362798469
sI22100104
F0.00018669442362798469
sI30816393
F0.00018669442362798469
sI1276042
F0.00018669442362798469
sI11678743
F0.00018669442362798469
sI3192976
F0.00018669442362798469
sI5136067
F0.00018669442362798469
sI5503124
F0.00018669442362798469
sI5511318
F0.00048027140512256836
sI36870296
F0.00018669442362798469
sI1620121
F0.00043337454858162613
sI13605026
F0.00018669442362798469
sI15243427
F0.00018669442362798469
sI31835164
F0.0003894313304299087
sI13875370
F0.00039034692426173525
sI14710956
F0.00018669442362798469
sI4511917
F0.00018669442362798469
sI31835165
F0.00045329483684894846
sI12181193
F0.0010917722505640966
sI43230784
F0.00018669442362798469
sI1339082
F0.00018669442362798469
sI10500286
F0.0013794686422855702
sI21854399
F0.00018669442362798469
sI8231106
F0.00018669442362798469
sI5585092
F0.00018669442362798469
sI38656197
F0.00018669442362798469
sI16005321
F0.00018669442362798469
sI15784150
F0.00018669442362798469
sI15136983
F0.00018669442362798469
sI3387087
F0.00018669442362798469
sI17160414
F0.00018669442362798469
sI13378598
F0.00018669442362798469
sI17938663
F0.00018669442362798469
sI17938664
F0.0006533649895880854
sI10868969
F0.00018669442362798469
sI6043883
F0.00018669442362798469
sI41228524
F0.00032231546260607096
sI20674797
F0.00018669442362798469
sI31963379
F0.0006433248209819361
sI6895861
F0.00033174122566202334
sI21158134
F0.00018669442362798469
sI1038586
F0.00018669442362798469
sI40712444
F0.00018669442362798469
sI31717639
F0.00018669442362798469
sI2685192
F0.00018669442362798469
sI13665324
F0.00018669442362798469
sI3356939
F0.0009734096234708374
sI71948
F0.0006501371534201484
sI2529666
F0.0004211162628273914
sI21240080
F0.0007398660590498317
sI1841425
F0.00018669442362798469
sI15874322
F0.00018669442362798469
sI2734355
F0.00018669442362798469
sI15874325
F0.00018669442362798469
sI15874327
F0.00018669442362798469
sI15243544
F0.00018669442362798469
sI15874329
F0.00018669442362798469
sI2734363
F0.00018669442362798469
sI37247265
F0.00018669442362798469
sI37247266
F0.00018669442362798469
sI18569509
F0.00018669442362798469
sI30849318
F0.00018669442362798469
sI9312551
F0.00018669442362798469
sI39177948
F0.00018669442362798469
sI10795310
F0.00018669442362798469
sI1980720
F0.0018577150281243637
sI35674418
F0.00018669442362798469
sI10795315
F0.00018669442362798469
sI30783796
F0.00018669442362798469
sI13457718
F0.00018669442362798469
sI11090231
F0.00018669442362798469
sI7084346
F0.00018669442362798469
sI1382718
F0.00018669442362798469
sI1784127
F0.00018669442362798469
sI11966784
F0.0006688199393327482
sI14760260
F0.00018669442362798469
sI15219014
F0.00018669442362798469
sI17307982
F0.00018669442362798469
sI15219025
F0.0012172797619820726
sI6355283
F0.00018669442362798469
sI4675924
F0.00018669442362798469
sI6355285
F0.00018669442362798469
sI14121304
F0.00018669442362798469
sI12835161
F0.00042057391110123595
sI3907301
F0.00036424813453323325
sI38680933
F0.00018669442362798469
sI20265327
F0.00018669442362798469
sI12106098
F0.00018669442362798469
sI260467
F0.00018669442362798469
sI3807605
F0.00018669442362798469
sI670075
F0.00018669442362798469
sI3597376
F0.00018669442362798469
sI10631554
F0.00018669442362798469
sI16554371
F0.00018669442362798469
sI41408900
F0.00018669442362798469
sI3561864
F0.00018669442362798469
sI6046786
F0.00018669442362798469
sI1178006
F0.00018669442362798469
sI4102556
F0.00018669442362798469
sI5708192
F0.00018669442362798469
sI10058146
F0.00018669442362798469
sI22149540
F0.00018669442362798469
sI14727592
F0.00018669442362798469
sI3078556
F0.00018669442362798469
sI1571242
F0.00018669442362798469
sI42055
F0.000620097637056138
sI20494769
F0.00018669442362798469
sI2734517
F0.00018669442362798469
sI10009018
F0.00018669442362798469
sI22075839
F0.00018669442362798469
sI20740544
F0.00018669442362798469
sI43104705
F0.00018669442362798469
sI37099973
F0.00018669442362798469
sI432582
F0.0003285900558923994
sI1833419
F0.00018669442362798469
sI38418892
F0.00018669442362798469
sI37788111
F0.00018669442362798469
sI35011024
F0.00018669442362798469
sI30718417
F0.00018669442362798469
sI41062718
F0.00018669442362798469
sI5700053
F0.00018669442362798469
sI1701292
F0.00018669442362798469
sI34109919
F0.00018669442362798469
sI21862881
F0.00018669442362798469
sI13644802
F0.00018669442362798469
sI21435471
F0.00018669442362798469
sI37542380
F0.00018669442362798469
sI2832877
F0.0003573765783354127
sI3078638
F0.0003225215994940284
sI31218
F0.00018669442362798469
sI20576681
F0.00018669442362798469
sI31224
F0.00018669442362798469
sI14547450
F0.00018669442362798469
sI14547453
F0.00018669442362798469
sI21435477
F0.00018669442362798469
sI1212734
F0.006647383871895421
sI1784235
F0.00018669442362798469
sI21453316
F0.00018669442362798469
sI4766220
F0.00018669442362798469
sI37804578
F0.00018669442362798469
sI38738467
F0.00018669442362798469
sI4176421
F0.00018669442362798469
sI21346854
F0.00018669442362798469
sI21821991
F0.00018669442362798469
sI5264477
F0.00018669442362798469
sI38569054
F0.00018669442362798469
sI15028085
F0.00018669442362798469
sI20609597
F0.00033264860651975445
sI3149225
F0.00018669442362798469
sI6642242
F0.00018669442362798469
sI2218564
F0.00018669442362798469
sI3471942
F0.00018669442362798469
sI20167241
F0.00018669442362798469
sI5159498
F0.00018669442362798469
sI20159052
F0.0006875013104675553
sI3867746
F0.00018669442362798469
sI12114511
F0.00018669442362798469
sI5012048
F0.0004842704611900943
sI37616219
F0.00018669442362798469
sI30104156
F0.00018669442362798469
sI22068498
F0.00018669442362798469
sI13081188
F0.00018669442362798469
sI4684392
F0.00018669442362798469
sI2686738
F0.00018669442362798469
sI9927279
F0.00018669442362798469
sI8115778
F0.0012309807449989076
sI16652918
F0.0004247298139329857
sI8616567
F0.00018669442362798469
sI3214275
F0.00018669442362798469
sI17635962
F0.00018669442362798469
sI1059263
F0.0010737124370072159
sI16315498
F0.00018669442362798469
sI12736987
F0.0008060037588246404
sI10541504
F0.00018669442362798469
sI30800514
F0.00018669442362798469
sI13458051
F0.00018669442362798469
sI5577350
F0.0022572803680089184
sI4586119
F0.00018669442362798469
sI21641865
F0.00018669442362798469
sI33553035
F0.00018669442362798469
sI30890637
F0.00018669442362798469
sI14400142
F0.00037040651229733914
sI37927575
F0.00018669442362798469
sI70767
F0.0006641081265602257
sI22002333
F0.00018669442362798469
sI15415970
F0.00018669442362798469
sI50586381
F0.00018669442362798469
sI30489030
F0.00018669442362798469
sI1850026
F0.0003753192880519659
sI1850028
F0.00035666712324529035
sI3248882
F0.00018669442362798469
sI32357041
F0.00018669442362798469
sI35142323
F0.00018669442362798469
sI15497908
F0.00018669442362798469
sI43219637
F0.0010708486950805527
sI3799734
F0.0003285900558923994
sI15415994
F0.00018669442362798469
sI15415995
F0.00018669442362798469
sI2439869
F0.00018669442362798469
sI14326463
F0.00018669442362798469
sI31431360
F0.00018669442362798469
sI21379779
F0.00018669442362798469
sI33053381
F0.0003453846838313187
sI800544
F0.00018669442362798469
sI20090657
F0.00018669442362798469
sI21600969
F0.00018669442362798469
sI33962698
F0.00018669442362798469
sI8526540
F0.0015714943885359127
sI1137358
F0.00018669442362798469
sI1563343
F0.00018669442362798469
sI14375632
F0.00018669442362798469
sI8354517
F0.00018669442362798469
sI3668695
F0.00035331919695990124
sI4012760
F0.00018669442362798469
sI14720119
F0.00018669442362798469
sI5634781
F0.00018669442362798469
sI16300766
F0.0003628095831852293
sI899808
F0.00018669442362798469
sI3865041
F0.00018669442362798469
sI4586221
F0.00018669442362798469
sI37444338
F0.00018669442362798469
sI723411
F0.017411558370891114
sI1858293
F0.00018669442362798469
sI35789562
F0.00018669442362798469
sI43121403
F0.00018669442362798469
sI43121404
F0.00018669442362798469
sI9221249
F0.00018669442362798469
sI9616136
F0.00018669442362798469
sI21412617
F0.00018669442362798469
sI13875980
F0.00018669442362798469
sI50273037
F0.00018669442362798469
sI37214992
F0.00018669442362798469
sI2520
F0.0016401160503134466
sI35814170
F0.00018669442362798469
sI20667168
F0.00018669442362798469
sI5118427
F0.00018669442362798469
sI35618263
F0.00018669442362798469
sI15366951
F0.00018669442362798469
sI11852589
F0.00018669442362798469
sI1530672
F0.00018669442362798469
sI20478770
F0.0006533649895880854
sI654135
F0.00018669442362798469
sI14187325
F0.00018669442362798469
sI14187326
F0.00018669442362798469
sI37919558
F0.00018669442362798469
sI39844321
F0.00018669442362798469
sI4725588
F0.00018669442362798469
sI21281625
F0.00018669442362798469
sI20757342
F0.00018669442362798469
sI3611487
F0.00018669442362798469
sI244579
F0.00018669442362798469
sI12311398
F0.00018669442362798469
sI12278640
F0.00018669442362798469
sI12469941
F0.00018669442362798469
sI1907570
F0.00018669442362798469
sI38837107
F0.00018669442362798469
sI7290686
F0.00018669442362798469
sI3283830
F0.00018669442362798469
sI20472980
F0.00018669442362798469
sI4995962
F0.00018669442362798469
sI5664575
F0.00018669442362798469
sI30850573
F0.00018669442362798469
sI2964349
F0.0006108564176392704
sI1071998
F0.0006875013104675553
sI3985314
F0.007515881759297842
sI3767170
F0.0006641081265602257
sI859011
F0.00018669442362798469
sI34364293
F0.00018669442362798469
sI2128775
F0.00018669442362798469
sI38738412
F0.00018669442362798469
sI1350538
F0.00018669442362798469
sI13668162
F0.00018669442362798469
sI42851214
F0.00018669442362798469
sI1899407
F0.001017950879656843
sI37919633
F0.00018669442362798469
sI16997267
F0.00018669442362798469
sI21706631
F0.00018669442362798469
sI3783574
F0.00018669442362798469
sI40261298
F0.00018669442362798469
sI37755803
F0.00048027140512256836
sI1350556
F0.00018669442362798469
sI14769053
F0.00018669442362798469
sI13384608
F0.00018669442362798469
sI13384610
F0.00018669442362798469
sI10541988
F0.005751372803492683
sI727973
F0.00018669442362798469
sI31652775
F0.00018669442362798469
sI539561
F0.0006641081265602257
sI21453739
F0.00018669442362798469
sI20118445
F0.00018669442362798469
sI3447726
F0.00018669442362798469
sI2120627
F0.0003285900558923994
sI1653684
F0.00018669442362798469
sI10599354
F0.0005113567534967426
sI22133694
F0.00018669442362798469
sI1452533
F0.00018669442362798469
sI162752
F0.0017541082037210109
sI3447751
F0.00018669442362798469
sI3447752
F0.00018669442362798469
sI924618
F0.0008991702754976998
sI441291
F0.00036424813453323325
sI35314636
F0.0008587433774631834
sI1287330
F0.00018669442362798469
sI318416
F0.0003423748289256795
sI9886673
F0.00018669442362798469
sI15080402
F0.00018669442362798469
sI42759331
F0.00018669442362798469
sI9886676
F0.00018669442362798469
sI33446869
F0.00018669442362798469
sI7560153
F0.0006802244961444658
sI7560155
F0.0006802244961444658
sI21920735
F0.00018669442362798469
sI6059010
F0.00018669442362798469
sI2284516
F0.001445919969269543
sI5037029
F0.0003225215994940284
sI5561323
F0.00018669442362798469
sI2014189
F0.0006533649895880854
sI220143
F0.00018669442362798469
sI15266984
F0.00018669442362798469
sI7560179
F0.0008572543693743432
sI33192948
F0.00018669442362798469
sI293877
F0.00018669442362798469
sI7625726
F0.00018669442362798469
sI21519360
F0.00018669442362798469
sI4152327
F0.00018669442362798469
sI6634505
F0.002747372842949478
sI2104332
F0.00018669442362798469
sI5864461
F0.00018669442362798469
sI5864462
F0.00018669442362798469
sI15342607
F0.00018669442362798469
sI5864464
F0.0007243105468937181
sI30687064
F0.00018669442362798469
sI22092291
F0.00018669442362798469
sI4881431
F0.00018669442362798469
sI11643396
F0.00018669442362798469
sI11025434
F0.00018669442362798469
sI2729135
F0.00018669442362798469
sI21249056
F0.0005841856537521368
sI21809670
F0.0003225215994940284
sI14679078
F0.00018669442362798469
sI343673
F0.00018669442362798469
sI21322794
F0.00018669442362798469
sI41408899
F0.0004959077682957413
sI10984495
F0.00018669442362798469
sI35421235
F0.00018669442362798469
sI16284729
F0.0002648223925401725
sI21888059
F0.00018669442362798469
sI1539133
F0.00018669442362798469
sI1358911
F0.0003225215994940284
sI8510535
F0.00018669442362798469
sI21019722
F0.00018669442362798469
sI8926391
F0.00018669442362798469
sI33209420
F0.00018669442362798469
sI3832909
F0.0005179257338509823
sI12917842
F0.00018669442362798469
sI4865115
F0.00018669442362798469
sI485249
F0.00018669442362798469
sI14720097
F0.00018669442362798469
sI14720098
F0.00018669442362798469
sI2767971
F0.00018669442362798469
sI769125
F0.00018669442362798469
sI20536429
F0.00018669442362798469
sI4963440
F0.00018669442362798469
sI3914871
F0.00018669442362798469
sI40361080
F0.00018669442362798469
sI3914873
F0.00018669442362798469
sI40326335
F0.000674492856602155
sI1444373
F0.00018669442362798469
sI15350915
F0.00018669442362798469
sI16669837
F0.00018669442362798469
sI30293135
F0.00018669442362798469
sI2819267
F0.00018669442362798469
sI39705749
F0.00132031509724768
sI16972950
F0.00018669442362798469
sI14420505
F0.00018669442362798469
sI42515610
F0.00018669442362798469
sI5848223
F0.00018669442362798469
sI1129636
F0.00018669442362798469
sI4056262
F0.0008489308415754011
sI36732070
F0.00018669442362798469
sI13688689
F0.00018669442362798469
sI37272744
F0.00018669442362798469
sI30293162
F0.00018669442362798469
sI2776236
F0.0003225215994940284
sI146605
F0.00018669442362798469
sI11911027
F0.00018669442362798469
sI20765876
F0.00018669442362798469
sI32563060
F0.00018669442362798469
sI40361151
F0.00018669442362798469
sI5979330
F0.00018669442362798469
sI40361158
F0.00018669442362798469
sI2645194
F0.00018669442362798469
sI12630562
F0.00018669442362798469
sI40076493
F0.00018669442362798469
sI3095768
F0.00018669442362798469
sI10427619
F0.00018669442362798469
sI2702564
F0.00030101030636302755
sI3175633
F0.00018669442362798469
sI3866492
F0.00018669442362798469
sI13188332
F0.00018669442362798469
sI31642834
F0.00018669442362798469
sI2497775
F0.00018669442362798469
sI3849456
F0.0003423748289256795
sI20749555
F0.00018669442362798469
sI3849460
F0.00018669442362798469
sI30657065
F0.00018669442362798469
sI10714362
F0.00018669442362798469
sI37051649
F0.00018669442362798469
sI2882821
F0.00018669442362798469
sI30465286
F0.00018669442362798469
sI687370
F0.0003285900558923994
sI20544779
F0.00018669442362798469
sI11205906
F0.0005025059809436789
sI40770836
F0.00018669442362798469
sI13942041
F0.00018669442362798469
sI6487324
F0.00045154979291994036
sI42900765
F0.00018669442362798469
sI5258528
F0.00018669442362798469
sI20913441
F0.00018669442362798469
sI39470242
F0.00018669442362798469
sI16284970
F0.0003311019899872711
sI4321159
F0.00018669442362798469
sI4160812
F0.00018669442362798469
sI41286958
F0.001363653713110279
sI3185967
F0.00018669442362798469
sI30358832
F0.00018669442362798469
sI12524850
F0.00018669442362798469
sI4160819
F0.00018669442362798469
sI4865332
F0.0004002594669448306
sI12524853
F0.00018669442362798469
sI22125878
F0.00018669442362798469
sI1432890
F0.0011187239723520833
sI14507323
F0.00041438860879685545
sI13745472
F0.0005877635163668803
sI39411011
F0.00018669442362798469
sI20249924
F0.00018669442362798469
sI41762120
F0.00018669442362798469
sI8101772
F0.00018669442362798469
sI33635669
F0.00018669442362798469
sI33135959
F0.00018669442362798469
sI1400154
F0.00018669442362798469
sI793947
F0.00018669442362798469
sI1105245
F0.00018669442362798469
sI1277278
F0.000674492856602155
sI7820517
F0.00018669442362798469
sI5158552
F0.0006641081265602257
sI42900835
F0.0029665494536129985
sI16661861
F0.00018669442362798469
sI12467564
F0.00018669442362798469
sI3985298
F0.00018669442362798469
sI30694769
F0.00018669442362798469
sI20880755
F0.00018669442362798469
sI1219959
F0.0022623807518766356
sI6053242
F0.0013405466752420788
sI20931818
F0.00018669442362798469
sI12852607
F0.0003285900558923994
sI3677579
F0.00018669442362798469
sI3800460
F0.00018669442362798469
sI3800462
F0.00018669442362798469
sI14769552
F0.00018669442362798469
sI130969
F0.00018669442362798469
sI941465
F0.00018669442362798469
sI7779567
F0.00018669442362798469
sI3546529
F0.0003225215994940284
sI42900898
F0.00018669442362798469
sI1482147
F0.00018669442362798469
sI1482151
F0.00018669442362798469
sI261549
F0.00018669442362798469
sI15622045
F0.000674492856602155
sI37838256
F0.00018669442362798469
sI37838257
F0.00018669442362798469
sI3153332
F0.00018669442362798469
sI14597562
F0.00018669442362798469
sI1162683
F0.00018669442362798469
sI11558332
F0.0010917722505640966
sI5176766
F0.00018669442362798469
sI32419744
F0.0003285900558923994
sI21114785
F0.00018669442362798469
sI37477832
F0.00018669442362798469
sI30809549
F0.00018669442362798469
sI1580494
F0.00018669442362798469
sI1580498
F0.00018669442362798469
sI15818659
F0.00018669442362798469
sI32759252
F0.00018669442362798469
sI20633251
F0.00018669442362798469
sI16891351
F0.00018669442362798469
sI37523945
F0.00018669442362798469
sI31940069
F0.00018669442362798469
sI30776809
F0.0003285900558923994
sI6725100
F0.0002757457723928507
sI41123311
F0.00018669442362798469
sI41123312
F0.00018669442362798469
sI1179124
F0.00018669442362798469
sI51158518
F0.00018669442362798469
sI4513272
F0.00018669442362798469
sI36961785
F0.00018669442362798469
sI40762874
F0.00033264860651975445
sI8692991
F0.00018669442362798469
sI21768028
F0.00018669442362798469
sI8822284
F0.00018669442362798469
sI4963853
F0.00018669442362798469
sI13254213
F0.00018669442362798469
sI1695251
F0.00018669442362798469
sI16973335
F0.00018669442362798469
sI1031705
F0.00018669442362798469
sI35618339
F0.00018669442362798469
sI2432551
F0.00018669442362798469
sI1170984
F0.00018669442362798469
sI2219569
F0.00018669442362798469
sI2219570
F0.00018669442362798469
sI179770
F0.0005404773256861037
sI21511740
F0.00018669442362798469
sI13285039
F0.00018669442362798469
sI50988299
F0.0012446287230619864
sI16277061
F0.00018669442362798469
sI13254214
F0.00018669442362798469
sI30809684
F0.00018669442362798469
sI38567512
F0.00018669442362798469
sI32333401
F0.00018669442362798469
sI3022427
F0.00018669442362798469
sI32726620
F0.00018669442362798469
sI712290
F0.0005841856537521368
sI33881699
F0.00018669442362798469
sI4102908
F0.00018669442362798469
sI294503
F0.00018669442362798469
sI4742760
F0.0004185155567639539
sI4513386
F0.00018669442362798469
sI1605227
F0.00018669442362798469
sI14458477
F0.0005113567534967426
sI15105652
F0.00018669442362798469
sI573374
F0.00018669442362798469
sI31719032
F0.00018669442362798469
sI30883449
F0.00018669442362798469
sI2104957
F0.002008492087159542
sI20717186
F0.00018669442362798469
sI3956358
F0.0003423748289256795
sI2104969
F0.0014690648583459726
sI35618442
F0.0007487069255101205
sI11697803
F0.0013741221726637702
sI1042835
F0.00018669442362798469
sI573073
F0.0003225215994940284
sI4710036
F0.0003285900558923994
sI30801557
F0.00018669442362798469
sI4890262
F0.00018669442362798469
sI5594775
F0.00018669442362798469
sI30801561
F0.00018669442362798469
sI6069923
F0.00018669442362798469
sI3432105
F0.00018669442362798469
sI22142635
F0.00018669442362798469
sI2457260
F0.00018669442362798469
sI319150
F0.0006533649895880854
sI21061304
F0.0003285900558923994
sI21061306
F0.0010615993566843777
sI5486191
F0.0002757457723928507
sI5136061
F0.00018669442362798469
sI5136064
F0.00018669442362798469
sI33226434
F0.00018669442362798469
sI655043
F0.00018669442362798469
sI9690825
F0.00018669442362798469
sI425678
F0.0003423748289256795
sI1449682
F0.0006875013104675553
sI34184918
F0.00035556216627570796
sI13639390
F0.0003285900558923994
sI21741280
F0.00018669442362798469
sI30293732
F0.00018669442362798469
sI15122149
F0.00018669442362798469
sI30293739
F0.00018669442362798469
sI6610668
F0.00032231546260607096
sI1305255
F0.00018669442362798469
sI20356851
F0.00018669442362798469
sI2629365
F0.00018669442362798469
sI7249659
F0.0008255529931502336
sI14589696
F0.00018669442362798469
sI5486219
F0.0002757457723928507
sI17579780
F0.00018669442362798469
sI32907013
F0.0005411969019941698
sI20299526
F0.00018669442362798469
sI3876504
F0.00018669442362798469
sI32415502
F0.00018669442362798469
sI4097325
F0.00018669442362798469
sI20981332
F0.00018669442362798469
sI4095761
F0.00018669442362798469
sI1105682
F0.00018669442362798469
sI41648089
F0.0007053704389683038
sI15654689
F0.00018669442362798469
sI42729252
F0.00018669442362798469
sI20414258
F0.00018669442362798469
sI10788659
F0.00018669442362798469
sI34537273
F0.00018669442362798469
sI15081275
F0.00018669442362798469
sI868158
F0.00018669442362798469
sI21544767
F0.00018669442362798469
sI188224
F0.0006641081265602257
sI1134560
F0.00018669442362798469
sI21831490
F0.00018669442362798469
sI17815147
F0.00018669442362798469
sI34332489
F0.00018669442362798469
sI2817869
F0.00018669442362798469
sI20404877
F0.00018669442362798469
sI13997368
F0.00018669442362798469
sI2514776
F0.00018669442362798469
sI30850908
F0.00018669442362798469
sI2613087
F0.00018669442362798469
sI1507173
F0.00018669442362798469
sI319336
F0.00018669442362798469
sI14122858
F0.0008219250088053208
sI20919434
F0.00035331919695990124
sI14122861
F0.0022448200104569064
sI13688686
F0.00018669442362798469
sI11911024
F0.00018669442362798469
sI11911025
F0.00018669442362798469
sI4128627
F0.00018669442362798469
sI3407732
F0.00018669442362798469
sI1851253
F0.0007594946092832607
sI15351671
F0.00018669442362798469
sI2334585
F0.00018669442362798469
sI2514811
F0.00018669442362798469
sI9633660
F0.001744477091258966
sI32268157
F0.00018669442362798469
sI2670463
F0.00018669442362798469
sI11706245
F0.00018669442362798469
sI22085510
F0.00018669442362798469
sI51333574
F0.00018669442362798469
sI14909322
F0.00018669442362798469
sI2383756
F0.00018669442362798469
sI15785870
F0.00018669442362798469
sI40614858
F0.00018669442362798469
sI13361041
F0.00018669442362798469
sI130963
F0.00018669442362798469
sI1834905
F0.00018669442362798469
sI13582236
F0.00018669442362798469
sI3080093
F0.0010947831705570873
sI1621921
F0.00018669442362798469
sI1621922
F0.00018669442362798469
sI33152931
F0.00018669442362798469
sI130988
F0.00018669442362798469
sI21520307
F0.00018669442362798469
sI20864950
F0.00018669442362798469
sI1504393
F0.00018669442362798469
sI33161147
F0.017790295630372
sI9355198
F0.00018669442362798469
sI3006061
F0.00018669442362798469
sI5209871
F0.00018669442362798469
sI2832882
F0.0003573765783354127
sI819144
F0.00018669442362798469
sI16285644
F0.00018669442362798469
sI13818530
F0.00018669442362798469
sI33416459
F0.00018669442362798469
sI15220693
F0.00018669442362798469
sI12279768
F0.00018669442362798469
sI42762201
F0.00018669442362798469
sI8175578
F0.00018669442362798469
sI11648990
F0.0003423748289256795
sI15362725
F0.00018669442362798469
sI31522784
F0.00018669442362798469
sI14417891
F0.00018669442362798469
sI12419047
F0.00018669442362798469
sI5144572
F0.00018669442362798469
sI12970663
F0.00018669442362798469
sI10232617
F0.00018669442362798469
sI14852084
F0.00018669442362798469
sI458741
F0.000528138080870705
sI5013495
F0.00018669442362798469
sI19046396
F0.00018669442362798469
sI34275327
F0.0005300835574357103
s.