(dp0
I6766592
F0.0008045765928211068
sI12566536
F0.00019945756934549298
sI12566538
F0.00019945756934549298
sI11067404
F0.00019945756934549298
sI12353549
F0.00019945756934549298
sI11067406
F0.000718693799145243
sI10084368
F0.00046643906799737246
sI16121875
F0.0012252927283191435
sI4546582
F0.0012902069800736027
sI20111387
F0.00019945756934549298
sI589855
F0.00019945756934549298
sI21454880
F0.00019945756934549298
sI7872551
F0.0006537231121601586
sI10035241
F0.00019945756934549298
sI7872554
F0.0006362413855193293
sI528391
F0.00019945756934549298
sI32292915
F0.00043775760522343386
sI3973175
F0.00019945756934549298
sI2359353
F0.00019945756934549298
sI417850
F0.001329714521011634
sI43219637
F0.0008107902836756466
sI2359362
F0.00019945756934549298
sI3326029
F0.00019945756934549298
sI30384207
F0.00019945756934549298
sI4251731
F0.00019945756934549298
sI10182740
F0.00019945756934549298
sI3366999
F0.00019945756934549298
sI10182744
F0.00019945756934549298
sI417883
F0.001329714521011634
sI42557533
F0.00019945756934549298
sI31180133
F0.00019945756934549298
sI30703632
F0.00019945756934549298
sI40190052
F0.00019945756934549298
sI22017382
F0.00019945756934549298
sI417895
F0.001329714521011634
sI40345705
F0.00019945756934549298
sI21274731
F0.00019945756934549298
sI4776048
F0.00019945756934549298
sI4546579
F0.0031876850719724935
sI21520503
F0.00019945756934549298
sI1499258
F0.00019945756934549298
sI39059584
F0.00019945756934549298
sI42950788
F0.00019945756934549298
sI20054150
F0.00019945756934549298
sI4194440
F0.00019945756934549298
sI3965069
F0.00019945756934549298
sI3371032
F0.00019945756934549298
sI1171609
F0.00019945756934549298
sI2883740
F0.00019945756934549298
sI14172317
F0.00019945756934549298
sI12558496
F0.00019945756934549298
sI3965091
F0.00019945756934549298
sI12558501
F0.00019945756934549298
sI2171049
F0.00019945756934549298
sI13869227
F0.0003674363403738199
sI13836461
F0.00019945756934549298
sI11477168
F0.00019945756934549298
sI21889201
F0.00019945756934549298
sI6103218
F0.0005153482316512564
sI33284275
F0.00019945756934549298
sI10092728
F0.00019945756934549298
sI2605241
F0.00019945756934549298
sI3653664
F0.0022564928449412083
sI10936515
F0.00019945756934549298
sI17348429
F0.00019945756934549298
sI8126665
F0.00019945756934549298
sI20013260
F0.00019945756934549298
sI41169
F0.00019945756934549298
sI991443
F0.00019945756934549298
sI65749
F0.0004550470781637434
sI4392313
F0.00019945756934549298
sI11313370
F0.00019945756934549298
sI8593630
F0.00019945756934549298
sI220143
F0.00019945756934549298
sI7504109
F0.00019945756934549298
sI20840693
F0.00043775760522343386
sI827641
F0.00019945756934549298
sI21913854
F0.00019945756934549298
sI8354517
F0.00032175760142639045
sI21094656
F0.00019945756934549298
sI41771265
F0.00019945756934549298
sI25985
F0.00019945756934549298
sI3088650
F0.00019945756934549298
sI3668695
F0.00019945756934549298
sI12380888
F0.00019945756934549298
sI794898
F0.00019945756934549298
sI21031641
F0.00019945756934549298
sI31785242
F0.000564536096908239
sI5308700
F0.00019945756934549298
sI42557725
F0.00019945756934549298
sI5308702
F0.00019945756934549298
sI31491461
F0.0006458843635313136
sI2138403
F0.00019945756934549298
sI7733540
F0.00019945756934549298
sI12469638
F0.00019945756934549298
sI12825991
F0.00019945756934549298
sI12106098
F0.00019945756934549298
sI8667440
F0.001253075983136517
sI673160
F0.00019945756934549298
sI5202226
F0.00019945756934549298
sI16300766
F0.00019945756934549298
sI22061367
F0.0003291832514810054
sI1212728
F0.0005883843596044447
sI716852
F0.00019945756934549298
sI516410
F0.00019945756934549298
sI18235707
F0.0003291832514810054
sI1212732
F0.000983381123252687
sI6635838
F0.0014009403367983978
sI6963520
F0.001026046224642817
sI794945
F0.00019945756934549298
sI2203970
F0.00019945756934549298
sI4178243
F0.00019945756934549298
sI6537541
F0.00019945756934549298
sI1212742
F0.0004555544134809411
sI17416521
F0.0003167042696635264
sI30187851
F0.00019945756934549298
sI1671502
F0.0003718221528005493
sI1671512
F0.00019945756934549298
sI30255844
F0.00019945756934549298
sI16269662
F0.00019945756934549298
sI13787490
F0.00019945756934549298
sI819555
F0.0006400980020521408
sI20791655
F0.00019945756934549298
sI21176680
F0.00019945756934549298
sI20914543
F0.00019945756934549298
sI20914545
F0.00019945756934549298
sI1999220
F0.00019945756934549298
sI33464693
F0.00019945756934549298
sI1442166
F0.00019945756934549298
sI4415870
F0.00019945756934549298
sI15425921
F0.00019945756934549298
sI13083017
F0.0003291832514810054
sI3277196
F0.0004895812387457063
sI43221394
F0.00019945756934549298
sI43221397
F0.00019945756934549298
sI20382104
F0.00019945756934549298
sI11051424
F0.0004201745301094184
sI32426759
F0.00019945756934549298
sI31031716
F0.00019945756934549298
sI12845477
F0.00019945756934549298
sI32416171
F0.00019945756934549298
sI7864750
F0.00019945756934549298
sI15136157
F0.00019945756934549298
sI6193589
F0.0008627331753510986
sI32367036
F0.00019945756934549298
sI2113995
F0.00019945756934549298
sI4653521
F0.00019945756934549298
sI1819094
F0.00019945756934549298
sI17359322
F0.00019945756934549298
sI12509660
F0.00019945756934549298
sI38363625
F0.00019945756934549298
sI3678699
F0.00019945756934549298
sI3285484
F0.00019945756934549298
sI10133997
F0.00019945756934549298
sI7840239
F0.0003291832514810054
sI18719224
F0.00019945756934549298
sI39051769
F0.00019945756934549298
sI483835
F0.00019945756934549298
sI475646
F0.00019945756934549298
sI6341121
F0.00019945756934549298
sI3916292
F0.00043775760522343386
sI20922889
F0.00019945756934549298
sI10182743
F0.00019945756934549298
sI2384402
F0.00019945756934549298
sI16163348
F0.00019945756934549298
sI33138094
F0.0005131045980070607
sI30791087
F0.00019945756934549298
sI10895900
F0.0038708363630643814
sI11330079
F0.00019945756934549298
sI3654179
F0.00019945756934549298
sI36562353
F0.00019945756934549298
sI2823
F0.0005980906539032883
sI16554371
F0.00019945756934549298
sI16891351
F0.00019945756934549298
sI417885
F0.001329714521011634
sI30630459
F0.00019945756934549298
sI10273344
F0.0019940213331505947
sI2540097
F0.00019945756934549298
sI3334722
F0.00019945756934549298
sI32023990
F0.00019945756934549298
sI2089543
F0.00019945756934549298
sI2089544
F0.00019945756934549298
sI21185098
F0.00019945756934549298
sI12419660
F0.00019945756934549298
sI35193422
F0.00019945756934549298
sI4694607
F0.00019945756934549298
sI1696339
F0.00019945756934549298
sI30155348
F0.00019945756934549298
sI3539542
F0.00019945756934549298
sI16187996
F0.00019945756934549298
sI32727645
F0.00019945756934549298
sI10453599
F0.00019945756934549298
sI6734433
F0.003664709806896504
sI31212130
F0.00019945756934549298
sI12968549
F0.001329714521011634
sI12968550
F0.001329714521011634
sI4114945
F0.00019945756934549298
sI664182
F0.0009373314041213013
sI41583226
F0.00019945756934549298
sI4661888
F0.00019945756934549298
sI10289796
F0.00019945756934549298
sI40714888
F0.0008776133063367475
sI40714889
F0.00019945756934549298
sI40714890
F0.00019945756934549298
sI40714891
F0.00019945756934549298
sI40714892
F0.00019945756934549298
sI20193933
F0.00019945756934549298
sI20013710
F0.00019945756934549298
sI21758608
F0.00019945756934549298
sI33833626
F0.00032259337095147107
sI33833627
F0.00019945756934549298
sI860828
F0.00019945756934549298
sI860834
F0.00019945756934549298
sI33759907
F0.00019945756934549298
sI1160646
F0.00019945756934549298
sI3031720
F0.00019945756934549298
sI1442473
F0.00019945756934549298
sI14438514
F0.000987453356866911
sI20554418
F0.00019945756934549298
sI1499251
F0.0003291832514810054
sI4162228
F0.00019945756934549298
sI3736245
F0.00019945756934549298
sI2613942
F0.0008128755936876097
sI4702903
F0.00019945756934549298
sI38547572
F0.00019945756934549298
sI20390588
F0.00019945756934549298
sI41149122
F0.00019945756934549298
sI2441923
F0.00019945756934549298
sI12968644
F0.00019945756934549298
sI40610593
F0.00019945756934549298
sI4653769
F0.00019945756934549298
sI5665171
F0.001147154213678607
sI35758801
F0.00019945756934549298
sI4072146
F0.00019945756934549298
sI15557334
F0.00019945756934549298
sI3353380
F0.00019945756934549298
sI107226
F0.00019945756934549298
sI328417
F0.0006981897531485428
sI6595301
F0.0007080743720889339
sI4031210
F0.00019945756934549298
sI41566956
F0.00019945756934549298
sI21193454
F0.00019945756934549298
sI6537967
F0.00019945756934549298
sI12280561
F0.00019945756934549298
sI6537971
F0.0006746302251283735
sI4113141
F0.00019945756934549298
sI30802679
F0.00019945756934549298
sI30802680
F0.00019945756934549298
sI787194
F0.00019945756934549298
sI42299520
F0.00019945756934549298
sI4236034
F0.00019945756934549298
sI20579080
F0.00019945756934549298
sI3556105
F0.00019945756934549298
sI1278730
F0.00019945756934549298
sI1409803
F0.00019945756934549298
sI15500044
F0.00019945756934549298
sI41741
F0.00019945756934549298
sI1278734
F0.00019945756934549298
sI5022480
F0.00019945756934549298
sI14779157
F0.00019945756934549298
sI2294550
F0.00019945756934549298
sI15090455
F0.00019945756934549298
sI3105560
F0.00019945756934549298
sI40805145
F0.00033228751546899655
sI42779418
F0.00019945756934549298
sI12624667
F0.00019945756934549298
sI4440862
F0.005469468345386666
sI17220393
F0.00019945756934549298
sI5432108
F0.00019945756934549298
sI20478770
F0.0006675971200090231
sI39068466
F0.00019945756934549298
sI40789471
F0.00019945756934549298
sI12542783
F0.00019945756934549298
sI2818880
F0.00019945756934549298
sI17900353
F0.00019945756934549298
sI20652866
F0.00019945756934549298
sI20366148
F0.00019945756934549298
sI37741381
F0.0005131045980070607
sI37741382
F0.00019945756934549298
sI38421322
F0.00019945756934549298
sI3744587
F0.00019945756934549298
sI6628172
F0.00019945756934549298
sI3482446
F0.00019945756934549298
sI36152143
F0.00019945756934549298
sI30917459
F0.00019945756934549298
sI16048987
F0.00019945756934549298
sI30393181
F0.00019945756934549298
sI672614
F0.00019945756934549298
sI22061927
F0.00019945756934549298
sI33211240
F0.00019945756934549298
sI2990953
F0.00019945756934549298
sI942954
F0.00019945756934549298
sI2990955
F0.00019945756934549298
sI3580780
F0.00019945756934549298
sI3343213
F0.00019945756934549298
sI3580783
F0.00019945756934549298
sI5415796
F0.00019945756934549298
sI41100149
F0.00019945756934549298
sI42779512
F0.0004050235271967451
sI42779513
F0.00037159256874623556
sI42779514
F0.0008569851870760865
sI42779515
F0.00019945756934549298
sI42779516
F0.0002842270364693998
sI15991677
F0.0007382460197520438
sI20398974
F0.00019945756934549298
sI2057088
F0.00019945756934549298
sI1565569
F0.00019945756934549298
sI1147782
F0.00019945756934549298
sI18645896
F0.00019945756934549298
sI11051914
F0.00019945756934549298
sI3605392
F0.00019945756934549298
sI12280721
F0.00019945756934549298
sI21480338
F0.00019945756934549298
sI17195926
F0.0003754673500212457
sI746392
F0.00019945756934549298
sI13976478
F0.0006630226416172013
sI4653983
F0.0003291832514810054
sI12796835
F0.00019945756934549298
sI21939112
F0.00019945756934549298
sI21939113
F0.00019945756934549298
sI30778283
F0.00019945756934549298
sI9839535
F0.00019945756934549298
sI21996468
F0.00019945756934549298
sI50864288
F0.00019945756934549298
sI9233347
F0.00019945756934549298
sI30778309
F0.00019945756934549298
sI2171847
F0.00019945756934549298
sI4457416
F0.0005211517929016746
sI533449
F0.00019945756934549298
sI2171854
F0.0004283351308831539
sI3220432
F0.00019945756934549298
sI2171858
F0.0004283351308831539
sI32326614
F0.00019945756934549298
sI22045655
F0.00019945756934549298
sI22045658
F0.00019945756934549298
sI22045661
F0.00019945756934549298
sI32310244
F0.00019945756934549298
sI2352106
F0.00019945756934549298
sI21996523
F0.00019945756934549298
sI12821484
F0.00019945756934549298
sI22012909
F0.00019945756934549298
sI12133363
F0.00019945756934549298
sI17425397
F0.00019945756934549298
sI39953398
F0.00019945756934549298
sI21973844
F0.00019945756934549298
sI14369806
F0.00019945756934549298
sI21004461
F0.00019945756934549298
sI779285
F0.00040226219834100694
sI22160410
F0.00019945756934549298
sI6906908
F0.0003689965035933066
sI20907037
F0.00019945756934549298
sI20907038
F0.00040226219834100694
sI20382751
F0.00032259337095147107
sI2155555
F0.0005237509738899975
sI1926180
F0.00019945756934549298
sI1623558
F0.00019945756934549298
sI38609958
F0.00019945756934549298
sI21480487
F0.00019945756934549298
sI1541164
F0.00019945756934549298
sI9440093
F0.0005831738457067177
sI2155568
F0.00033228751546899655
sI22160433
F0.00019945756934549298
sI8578102
F0.0006669899570325837
sI14435385
F0.00019945756934549298
sI15172671
F0.00019945756934549298
sI246848
F0.002403284645868792
sI42050
F0.0006933471140416843
sI32326725
F0.00019945756934549298
sI3441735
F0.00019945756934549298
sI21898313
F0.00019945756934549298
sI17548368
F0.00019945756934549298
sI4963853
F0.00019945756934549298
sI31351902
F0.0003689965035933066
sI4580447
F0.00019945756934549298
sI32179298
F0.00019945756934549298
sI32179299
F0.00019945756934549298
sI6112356
F0.00019945756934549298
sI32105573
F0.00019945756934549298
sI32425063
F0.00019945756934549298
sI4760683
F0.00019945756934549298
sI42771564
F0.00019945756934549298
sI6112371
F0.00019945756934549298
sI21333111
F0.00019945756934549298
sI7677050
F0.001547697945137729
sI14648450
F0.00019945756934549298
sI20448389
F0.00019945756934549298
sI43459724
F0.00019945756934549298
sI20484290
F0.00019945756934549298
sI11846804
F0.00019945756934549298
sI13960341
F0.00019945756934549298
sI33727638
F0.00019945756934549298
sI15475868
F0.00019945756934549298
sI1287329
F0.0008651044688331113
sI15475874
F0.00019945756934549298
sI31343780
F0.00019945756934549298
sI15475884
F0.00019945756934549298
sI11969709
F0.00019945756934549298
sI20186286
F0.00032175760142639045
sI30885039
F0.000564536096908239
sI14485022
F0.00019945756934549298
sI37540041
F0.00019945756934549298
sI35169464
F0.00019945756934549298
sI386237
F0.00019945756934549298
sI2409662
F0.00019945756934549298
sI386243
F0.00019945756934549298
sI30786756
F0.0003167042696635264
sI21750982
F0.00019945756934549298
sI30786759
F0.00019945756934549298
sI3187917
F0.00019945756934549298
sI3392718
F0.00019945756934549298
sI41706712
F0.0008128895437047959
sI4039898
F0.00019945756934549298
sI3187931
F0.00019945756934549298
sI10290398
F0.00033228751546899655
sI7726303
F0.00019945756934549298
sI845027
F0.00019945756934549298
sI9954532
F0.0006501541422159385
sI15377637
F0.00019945756934549298
sI16991466
F0.00019945756934549298
sI476395
F0.000718693799145243
sI3761388
F0.00019945756934549298
sI5121261
F0.00019945756934549298
sI2964349
F0.0005983592727510829
sI6341872
F0.004675703039530191
sI17695991
F0.00019945756934549298
sI5088505
F0.00019945756934549298
sI20553941
F0.00019945756934549298
sI10478851
F0.00019945756934549298
sI20292870
F0.00043555148181564533
sI1508618
F0.00019945756934549298
sI5088523
F0.0039508613107396865
sI5088524
F0.0010861478610400131
sI8693008
F0.00019945756934549298
sI17130769
F0.00019945756934549298
sI2458898
F0.00019945756934549298
sI2934040
F0.00019945756934549298
sI4515108
F0.00019945756934549298
sI12524853
F0.0003167042696635264
sI17122600
F0.00019945756934549298
sI3310889
F0.00019945756934549298
sI2278699
F0.00019945756934549298
sI4793645
F0.0003167042696635264
sI21087539
F0.00019945756934549298
sI15025460
F0.00042122517166880076
sI20645173
F0.00019945756934549298
sI15025465
F0.0003796844736520975
sI38438203
F0.00019945756934549298
sI20915516
F0.00019945756934549298
sI1350538
F0.00019945756934549298
sI1959232
F0.00019945756934549298
sI33195330
F0.00019945756934549298
sI15025480
F0.0008758203356603314
sI4810062
F0.00019945756934549298
sI30688596
F0.00019945756934549298
sI1899407
F0.00043775760522343386
sI7193948
F0.00019945756934549298
sI37455197
F0.00019945756934549298
sI1378
F0.00019945756934549298
sI4343139
F0.00019945756934549298
sI21636453
F0.00032175760142639045
sI31180134
F0.00019945756934549298
sI3769705
F0.00019945756934549298
sI14411118
F0.0005096902241908941
sI4769138
F0.00019945756934549298
sI16237943
F0.00019945756934549298
sI34899321
F0.00019945756934549298
sI1926526
F0.00019945756934549298
sI3081601
F0.00019945756934549298
sI413931
F0.000975625283296965
sI31491460
F0.0006404833556603613
sI21751173
F0.00019945756934549298
sI31491462
F0.0014842215500661898
sI31491464
F0.0009063098790352121
sI31491465
F0.0004297723231426009
sI14124427
F0.00029871162817758727
sI107917
F0.00019945756934549298
sI21636494
F0.00032175760142639045
sI7086317
F0.002016656757949309
sI4613522
F0.00019945756934549298
sI30860695
F0.0004801818471590266
sI5457312
F0.00019945756934549298
sI20391329
F0.00019945756934549298
sI9921955
F0.00019945756934549298
sI4834728
F0.00019945756934549298
sI15549870
F0.00019945756934549298
sI16860593
F0.0005153482316512564
sI21956022
F0.00019945756934549298
sI3143241
F0.0005131045980070607
sI39355832
F0.00019945756934549298
sI15779261
F0.00019945756934549298
sI34481598
F0.00043555148181564533
sI827637
F0.00019945756934549298
sI38389185
F0.00033988855082919627
sI2508231
F0.001489799857246967
sI3696073
F0.00019945756934549298
sI42479863
F0.00019945756934549298
sI30614988
F0.00019945756934549298
sI40789453
F0.00019945756934549298
sI12805584
F0.00019945756934549298
sI17548755
F0.00019945756934549298
sI38357924
F0.00019945756934549298
sI22055845
F0.00019945756934549298
sI20702688
F0.00019945756934549298
sI20633169
F0.00033228751546899655
sI1156585
F0.0004550470781637434
sI18564588
F0.00019945756934549298
sI4146669
F0.00019945756934549298
sI4457967
F0.00019945756934549298
sI14919153
F0.00019945756934549298
sI14550517
F0.00019945756934549298
sI1992185
F0.00019945756934549298
sI20030975
F0.0003291832514810054
sI21453739
F0.00019945756934549298
sI18122245
F0.0052029049727379114
sI18122246
F0.002458865561209168
sI2065930
F0.00019945756934549298
sI6211090
F0.00032259337095147107
sI4458004
F0.00019945756934549298
sI3447726
F0.00038784300742784243
sI3687958
F0.00019945756934549298
sI3917335
F0.0004201745301094184
sI16401950
F0.0003291832514810054
sI33965601
F0.00019945756934549298
sI20465186
F0.00019945756934549298
sI3982883
F0.00019945756934549298
sI3786280
F0.00019945756934549298
sI39077417
F0.00019945756934549298
sI11191852
F0.0006675971200090231
sI21841455
F0.00019945756934549298
sI20145712
F0.00019945756934549298
sI11191857
F0.00019945756934549298
sI2120627
F0.00019945756934549298
sI869941
F0.00019945756934549298
sI2311734
F0.00019945756934549298
sI40044087
F0.00019945756934549298
sI3909178
F0.0011757300056134394
sI21407296
F0.00019945756934549298
sI1602
F0.00019945756934549298
sI10561091
F0.00019945756934549298
sI1984070
F0.0004555544134809411
sI16901703
F0.00019945756934549298
sI14698056
F0.00019945756934549298
sI14698057
F0.00019945756934549298
sI3376717
F0.00019945756934549298
sI12699216
F0.00019945756934549298
sI12437074
F0.0003291832514810054
sI10258003
F0.00019945756934549298
sI42772052
F0.00019945756934549298
sI14116437
F0.00019945756934549298
sI20964950
F0.00019945756934549298
sI869980
F0.00043775760522343386
sI2618981
F0.00019945756934549298
sI1984096
F0.006628388832537425
sI4564578
F0.00019945756934549298
sI1623661
F0.00019945756934549298
sI31532655
F0.00019945756934549298
sI21854299
F0.00019945756934549298
sI38585972
F0.00019945756934549298
sI22133694
F0.00019945756934549298
sI38585974
F0.00019945756934549298
sI17114743
F0.00019945756934549298
sI575096
F0.00019945756934549298
sI38159997
F0.00019945756934549298
sI21038718
F0.00019945756934549298
sI4392577
F0.00019945756934549298
sI31786626
F0.00019945756934549298
sI5486187
F0.00019945756934549298
sI7075436
F0.00019945756934549298
sI13158031
F0.00019945756934549298
sI2746000
F0.00037747345060880984
sI7358099
F0.00036627887688058387
sI10127000
F0.00019945756934549298
sI20711023
F0.00019945756934549298
sI20721946
F0.00019945756934549298
sI9332390
F0.00019945756934549298
sI41649835
F0.00019945756934549298
sI20997804
F0.00019945756934549298
sI304814
F0.00019945756934549298
sI5308701
F0.00019945756934549298
sI30885553
F0.00019945756934549298
sI20461171
F0.00019945756934549298
sI8406709
F0.0006746302251283735
sI4105911
F0.00019945756934549298
sI2680506
F0.00019945756934549298
sI21513917
F0.00019945756934549298
sI3909311
F0.00019945756934549298
sI41625281
F0.0002842270364693998
sI5483467
F0.00019945756934549298
sI1566405
F0.00019945756934549298
sI16918214
F0.0005573835248103401
sI40610764
F0.00047030074898505317
sI4384460
F0.00019945756934549298
sI41625293
F0.0004537659707172134
sI3131086
F0.00019945756934549298
sI20252280
F0.00019945756934549298
sI42762531
F0.0004086272762609719
sI20719316
F0.00019945756934549298
sI43427544
F0.0011065005789145056
sI3679962
F0.00019945756934549298
sI9856732
F0.0003291832514810054
sI20891357
F0.00019945756934549298
sI20891358
F0.00019945756934549298
sI20891359
F0.0004550470781637434
sI21972704
F0.00019945756934549298
sI38717160
F0.00019945756934549298
sI2254569
F0.00019945756934549298
sI12281580
F0.00019945756934549298
sI15080402
F0.00019945756934549298
sI12580477
F0.001236229426715375
sI4474609
F0.00019945756934549298
sI11036403
F0.00019945756934549298
sI4155129
F0.00019945756934549298
sI34285307
F0.00019945756934549298
sI4474621
F0.00019945756934549298
sI5793534
F0.00019945756934549298
sI8029953
F0.0007726274449790105
sI21448322
F0.00019945756934549298
sI20334351
F0.00019945756934549298
sI11806481
F0.00043555148181564533
sI4146965
F0.00019945756934549298
sI22132399
F0.003448432351200649
sI41887512
F0.00019945756934549298
sI7325488
F0.0012322995201271157
sI1623663
F0.010225436091077957
sI5486218
F0.0005573835248103401
sI42764095
F0.00039105764213820046
sI33564483
F0.00019945756934549298
sI1066823
F0.00019945756934549298
sI20653900
F0.00019945756934549298
sI21702477
F0.00019945756934549298
sI8070991
F0.0004644140777809746
sI8070992
F0.0010323590223725915
sI15656788
F0.00019945756934549298
sI41650007
F0.00019945756934549298
sI3589977
F0.00019945756934549298
sI32089948
F0.00019945756934549298
sI1501021
F0.00019945756934549298
sI1509214
F0.00019945756934549298
sI5037029
F0.00019945756934549298
sI5302112
F0.0003754673500212457
sI39004002
F0.00019945756934549298
sI837475
F0.00019945756934549298
sI837476
F0.00019945756934549298
sI8071017
F0.0009533179149165095
sI8071019
F0.003406174096545876
sI8071021
F0.0006192365880329854
sI4573044
F0.00019945756934549298
sI3868533
F0.00019945756934549298
sI5384057
F0.00019945756934549298
sI8071035
F0.0016571225990716283
sI8071036
F0.0004129987946021951
sI8071037
F0.0004644140777809746
sI14608256
F0.00019945756934549298
sI15304577
F0.00019945756934549298
sI8071043
F0.0006192365880329854
sI17266328
F0.00019945756934549298
sI1212739
F0.0005535018293613127
sI21496418
F0.00019945756934549298
sI13158294
F0.0004644140777809746
sI5851031
F0.00019945756934549298
sI43239320
F0.0004996560926787502
sI5203865
F0.00019945756934549298
sI4499355
F0.00019945756934549298
sI4499356
F0.00043775760522343386
sI13510562
F0.0006746302251283735
sI2279331
F0.00019945756934549298
sI12814247
F0.00019945756934549298
sI41076649
F0.00019945756934549298
sI41076650
F0.00019945756934549298
sI41076651
F0.00019945756934549298
sI41076652
F0.00019945756934549298
sI37431216
F0.00019945756934549298
sI21333938
F0.00019945756934549298
sI32475060
F0.0004555544134809411
sI4179894
F0.00027939977370295267
sI32475064
F0.00019945756934549298
sI30197690
F0.00019945756934549298
sI21292992
F0.00019945756934549298
sI2320327
F0.00019945756934549298
sI14895048
F0.00019945756934549298
sI1140683
F0.00019945756934549298
sI10708942
F0.00019945756934549298
sI30779344
F0.00019945756934549298
sI4507601
F0.00019945756934549298
sI21661651
F0.00019945756934549298
sI5834711
F0.0011653324831735225
sI10815450
F0.00019945756934549298
sI2705372
F0.00019945756934549298
sI4802525
F0.00019945756934549298
sI2705374
F0.00019945756934549298
sI17254369
F0.00019945756934549298
sI5687266
F0.00019945756934549298
sI2705379
F0.00019945756934549298
sI41420773
F0.00019945756934549298
sI33474535
F0.00019945756934549298
sI2705385
F0.00019945756934549298
sI4343792
F0.00019945756934549298
sI14239731
F0.0006393001457271162
sI313332
F0.00019945756934549298
sI4917246
F0.00019945756934549298
sI11282432
F0.00019945756934549298
sI35833872
F0.00019945756934549298
sI40454167
F0.004243973024350511
sI33089199
F0.00040226219834100694
sI22095908
F0.00019945756934549298
sI22095909
F0.00019945756934549298
sI3393575
F0.00019945756934549298
sI7817256
F0.0010194413679620708
sI3139625
F0.00019945756934549298
sI13682730
F0.0003291832514810054
sI4152327
F0.00019945756934549298
sI2954930
F0.00019945756934549298
sI36276271
F0.00019945756934549298
sI36276272
F0.00019945756934549298
sI2787379
F0.00019945756934549298
sI15501364
F0.00019945756934549298
sI31746102
F0.00033988855082919627
sI14174264
F0.00019945756934549298
sI8726588
F0.0004201745301094184
sI8726589
F0.000983381123252687
sI12388414
F0.00019945756934549298
sI10201151
F0.00019945756934549298
sI1706049
F0.00019945756934549298
sI141378
F0.00032175760142639045
sI12388419
F0.00019945756934549298
sI3278924
F0.00045624550186518974
sI18112866
F0.00019945756934549298
sI12453967
F0.00019945756934549298
sI20564049
F0.00019945756934549298
sI1902677
F0.00019945756934549298
sI36038744
F0.00019945756934549298
sI10495674
F0.00019945756934549298
sI35858528
F0.00019945756934549298
sI31500385
F0.00019945756934549298
sI33826915
F0.00019945756934549298
sI21809253
F0.00019945756934549298
sI17565802
F0.00019945756934549298
sI4827253
F0.0004550470781637434
sI8071288
F0.0006125231221911933
sI42322043
F0.00019945756934549298
sI33204349
F0.00019945756934549298
sI33204350
F0.00019945756934549298
sI1599616
F0.00033988855082919627
sI3344513
F0.00019945756934549298
sI33187973
F0.00019945756934549298
sI37849222
F0.00019945756934549298
sI419976
F0.00019945756934549298
sI1591436
F0.00019945756934549298
sI34482318
F0.00019945756934549298
sI32753808
F0.00019945756934549298
sI1435795
F0.00019945756934549298
sI35828420
F0.00019945756934549298
sI40825199
F0.00019945756934549298
sI32310981
F0.00019945756934549298
sI6146208
F0.0006746302251283735
sI862371
F0.00019945756934549298
sI1566406
F0.00019945756934549298
sI5728423
F0.00019945756934549298
sI862377
F0.00019945756934549298
sI9013422
F0.00032175760142639045
sI30779571
F0.00019945756934549298
sI9234612
F0.00043555148181564533
sI665781
F0.0004644140777809746
sI14370998
F0.00019945756934549298
sI15116474
F0.00019945756934549298
sI32417981
F0.00019945756934549298
sI13789376
F0.00019945756934549298
sI13789377
F0.00019945756934549298
sI1967820
F0.00019945756934549298
sI4892881
F0.00019945756934549298
sI13560019
F0.00019945756934549298
sI5032160
F0.00019945756934549298
sI21891299
F0.00019945756934549298
sI11610341
F0.004962205198021887
sI11299048
F0.00019945756934549298
sI10004713
F0.0003291832514810054
sI1362154
F0.0013022553181335716
sI18114799
F0.00019945756934549298
sI3852528
F0.00019945756934549298
sI35105017
F0.00019945756934549298
sI21031168
F0.00019945756934549298
sI9406722
F0.00019945756934549298
sI30485547
F0.00019945756934549298
sI8177925
F0.00019945756934549298
sI8890630
F0.00019945756934549298
sI30548353
F0.00019945756934549298
sI1382103
F0.00019945756934549298
sI2836749
F0.00019945756934549298
sI370958
F0.00019945756934549298
sI8317206
F0.0005096902241908941
sI12419047
F0.00019945756934549298
sI9201944
F0.00019945756934549298
sI32532763
F0.00019945756934549298
sI3467548
F0.0004550470781637434
sI15591130
F0.00019945756934549298
sI11290914
F0.00033228751546899655
sI32336183
F0.00019945756934549298
sI3467580
F0.00019945756934549298
sI2115902
F0.00019945756934549298
sI21956932
F0.00019945756934549298
sI33671495
F0.00019945756934549298
sI1231177
F0.00019945756934549298
sI11372874
F0.00019945756934549298
sI1231179
F0.00019945756934549298
sI34689421
F0.0005983592727510829
sI2855310
F0.0008260645936831185
sI20146525
F0.000997022450297306
sI37497182
F0.0003225527432029355
sI2247018
F0.00019945756934549298
sI616812
F0.00019945756934549298
sI2331026
F0.001839934159750746
sI21383538
F0.00019945756934549298
sI34376051
F0.00019945756934549298
sI682361
F0.0010488729310692538
sI30812539
F0.00019945756934549298
sI2967932
F0.00019945756934549298
sI3967357
F0.0003291832514810054
sI8874371
F0.00019945756934549298
sI4589958
F0.00019945756934549298
sI20236679
F0.00019945756934549298
sI14862739
F0.00019945756934549298
sI37194140
F0.00019945756934549298
sI20105632
F0.00019945756934549298
sI2107809
F0.00019945756934549298
sI37915045
F0.0003291832514810054
sI17426161
F0.00019945756934549298
sI846248
F0.00019945756934549298
sI559530
F0.00019945756934549298
sI13904300
F0.0006746302251283735
sI30411185
F0.00019945756934549298
sI584114
F0.00019945756934549298
sI37194164
F0.00019945756934549298
sI13219244
F0.00019945756934549298
sI20393033
F0.00019945756934549298
sI1657273
F0.00019945756934549298
sI21637564
F0.00019945756934549298
sI17263037
F0.00019945756934549298
sI13093311
F0.00019945756934549298
sI3729862
F0.00019945756934549298
sI16206280
F0.00019945756934549298
sI1444300
F0.0003718221528005493
sI32238030
F0.00019945756934549298
sI21383634
F0.00019945756934549298
sI34752979
F0.00019945756934549298
sI37194196
F0.003937173295766328
sI1829336
F0.00019945756934549298
sI215515
F0.00019945756934549298
sI6824357
F0.00019945756934549298
sI16542177
F0.00019945756934549298
sI38971875
F0.00019945756934549298
sI38193637
F0.0009087091192065667
sI3312103
F0.00019945756934549298
sI3312106
F0.00019945756934549298
sI13830639
F0.00032175760142639045
sI3402225
F0.00019945756934549298
sI15243427
F0.00019945756934549298
sI4573685
F0.00019945756934549298
sI21334519
F0.00019945756934549298
sI11643384
F0.00019945756934549298
sI11643390
F0.00019945756934549298
sI1559041
F0.0004550470781637434
sI31926788
F0.00041858318496319085
sI1264133
F0.00019945756934549298
sI1214982
F0.00019945756934549298
sI1444360
F0.00019945756934549298
sI31926794
F0.0008041937764256823
sI6236684
F0.00019945756934549298
sI35670542
F0.00019945756934549298
sI37915152
F0.00019945756934549298
sI21473809
F0.00019945756934549298
sI37653011
F0.00019945756934549298
sI37653012
F0.00019945756934549298
sI20488622
F0.00019945756934549298
sI31926806
F0.0009729950114734093
sI31926809
F0.0011775621659421687
sI21424668
F0.00019945756934549298
sI4237853
F0.00019945756934549298
sI15247905
F0.00019945756934549298
sI687370
F0.00019945756934549298
sI3213861
F0.00038278836999952755
sI3754534
F0.00019945756934549298
sI31926825
F0.0005685949198057449
sI30722602
F0.002317850375831023
sI1108523
F0.0006293368632368675
sI4237868
F0.00019945756934549298
sI20674797
F0.00019945756934549298
sI4467251
F0.00043555148181564533
sI14371390
F0.00019945756934549298
sI444991
F0.00019945756934549298
sI4237888
F0.00019945756934549298
sI3246661
F0.00019945756934549298
sI1116747
F0.00019945756934549298
sI3918415
F0.001044028859196308
sI39809464
F0.00019945756934549298
sI22096469
F0.00019945756934549298
sI42838614
F0.00019945756934549298
sI18418788
F0.00019945756934549298
sI20490845
F0.00180200900230801
sI20490846
F0.0005436434614468315
sI30526047
F0.000878303471250528
sI30526048
F0.0003167042696635264
sI21334630
F0.00019945756934549298
sI21088873
F0.00019945756934549298
sI3967597
F0.00019945756934549298
sI15280751
F0.00439718050004753
sI15280752
F0.0015480464246710362
sI666226
F0.00019945756934549298
sI35445
F0.00019945756934549298
sI3156601
F0.00019945756934549298
sI20228734
F0.00019945756934549298
sI2832151
F0.00019945756934549298
sI14011022
F0.00019945756934549298
sI42814098
F0.000997022450297306
sI690835
F0.00019945756934549298
sI41962132
F0.00019945756934549298
sI9587350
F0.00019945756934549298
sI12136730
F0.00040226219834100694
sI12642971
F0.00019945756934549298
sI3713695
F0.00019945756934549298
sI3558048
F0.0003689965035933066
sI21867173
F0.00019945756934549298
sI15362726
F0.00019945756934549298
sI21768871
F0.00019945756934549298
sI1305264
F0.00019945756934549298
sI7801522
F0.00019945756934549298
sI34310836
F0.00019945756934549298
sI18361013
F0.00019945756934549298
sI10504891
F0.0004996560926787502
sI1739453
F0.00032259337095147107
sI43199166
F0.00043555148181564533
sI7776959
F0.00019945756934549298
sI43199168
F0.0008344531852212354
sI14456608
F0.00019945756934549298
sI20662983
F0.00019945756934549298
sI30518391
F0.00019945756934549298
sI4180692
F0.00019945756934549298
sI18426581
F0.00019945756934549298
sI1272536
F0.00019945756934549298
sI17607385
F0.00019945756934549298
sI18311899
F0.00019945756934549298
sI920285
F0.002584116380293
sI5434080
F0.00019945756934549298
sI666338
F0.00019945756934549298
sI42511075
F0.00019945756934549298
sI4606692
F0.0004283351308831539
sI1747691
F0.00019945756934549298
sI150256
F0.00019945756934549298
sI11205906
F0.0011540804582621694
sI5074046
F0.00019945756934549298
sI30608119
F0.00019945756934549298
sI14027512
F0.00019945756934549298
sI30608122
F0.00019945756934549298
sI20630278
F0.00019945756934549298
sI21433095
F0.00019945756934549298
sI3803919
F0.00019945756934549298
sI31419155
F0.00019945756934549298
sI5231065
F0.00019945756934549298
sI21646104
F0.00019945756934549298
sI21646105
F0.00019945756934549298
sI21646106
F0.00019945756934549298
sI2853660
F0.0007644536374838314
sI20425502
F0.00019945756934549298
sI14633761
F0.00019945756934549298
sI3353379
F0.00019945756934549298
sI33229604
F0.00019945756934549298
sI4090661
F0.00019945756934549298
sI3681062
F0.00019945756934549298
sI31222583
F0.00019945756934549298
sI2714425
F0.00019945756934549298
sI10613215
F0.00019945756934549298
sI4934461
F0.00019945756934549298
sI9268034
F0.00019945756934549298
sI12954441
F0.00038784300742784243
sI183114
F0.00019945756934549298
sI183116
F0.00019945756934549298
sI39070548
F0.00019945756934549298
sI11365207
F0.00019945756934549298
sI4696923
F0.00019945756934549298
sI16403292
F0.00032259337095147107
sI20187997
F0.00019945756934549298
sI41931238
F0.0005951651336519102
sI21375846
F0.00019945756934549298
sI43158376
F0.00040226219834100694
sI20327273
F0.00019945756934549298
sI2198379
F0.00019945756934549298
sI16403308
F0.00019945756934549298
sI3678697
F0.00019945756934549298
sI732025
F0.0007798478180254456
sI248698
F0.00019945756934549298
sI39705749
F0.0006451271557907178
sI13814658
F0.0003291832514810054
sI41003908
F0.00032259337095147107
sI5802886
F0.00019945756934549298
sI40315783
F0.00019945756934549298
sI30477196
F0.00019945756934549298
sI37661848
F0.00019945756934549298
sI4631445
F0.00019945756934549298
sI4344727
F0.00019945756934549298
sI11742105
F0.00019945756934549298
sI8162202
F0.00019945756934549298
sI40610715
F0.0008344135853354857
sI14265252
F0.00019945756934549298
sI2206629
F0.0006592896059315948
sI22055851
F0.00019945756934549298
sI2788273
F0.00019945756934549298
sI7007155
F0.00019945756934549298
sI4770740
F0.00019945756934549298
sI1616823
F0.00019945756934549298
sI34048955
F0.00019945756934549298
sI3004
F0.00019945756934549298
sI13880258
F0.0003291832514810054
sI18082755
F0.0010784802085071858
sI3132356
F0.00019945756934549298
sI13683654
F0.00019945756934549298
sI1005388
F0.000387781807797121
sI40012747
F0.0011687076729301642
sI8244172
F0.00032175760142639045
sI21416911
F0.00033228751546899655
sI39701457
F0.00019945756934549298
sI21924825
F0.00019945756934549298
sI32680926
F0.00019945756934549298
sI11742176
F0.00019945756934549298
sI30485473
F0.0005385354378411203
sI2567138
F0.00019945756934549298
sI2509990
F0.00019945756934549298
sI14314470
F0.00019945756934549298
sI31656937
F0.00019945756934549298
sI37272744
F0.00019945756934549298
sI4959220
F0.00019945756934549298
sI5532663
F0.0008651044688331113
sI37211128
F0.00019945756934549298
sI800596
F0.00019945756934549298
sI232442
F0.000718693799145243
sI41552892
F0.00019945756934549298
sI19011468
F0.00019945756934549298
sI15322115
F0.00019945756934549298
sI15322118
F0.00019945756934549298
sI32681132
F0.00019945756934549298
sI2255884
F0.00019945756934549298
sI146605
F0.00019945756934549298
sI38186000
F0.00019945756934549298
sI12700693
F0.00019945756934549298
sI37800990
F0.00019945756934549298
sI30883449
F0.00019945756934549298
sI3091497
F0.0009261799645885933
sI4156459
F0.00019945756934549298
sI21376044
F0.00019945756934549298
sI11349037
F0.000387781807797121
sI41282607
F0.00019945756934549298
sI14273586
F0.0003718221528005493
sI11996213
F0.00019945756934549298
sI40610870
F0.00019945756934549298
sI4213815
F0.00019945756934549298
sI1395779
F0.00019945756934549298
sI6190945
F0.00019945756934549298
sI31435848
F0.001100841649821336
sI32681033
F0.0005291241274637075
sI31730762
F0.00019945756934549298
sI31435854
F0.00019945756934549298
sI31730769
F0.00019945756934549298
sI6597716
F0.001236229426715375
sI6597717
F0.0010935723286797277
sI715865
F0.0006451271557907178
sI14486619
F0.00019945756934549298
sI35581020
F0.00019945756934549298
sI4369502
F0.00019945756934549298
sI20843616
F0.00019945756934549298
sI1125474
F0.00019945756934549298
sI953444
F0.00019945756934549298
sI37858413
F0.00019945756934549298
sI15109231
F0.0008344531852212354
sI2772080
F0.00019945756934549298
sI1174642
F0.00019945756934549298
sI15682676
F0.00019945756934549298
sI478327
F0.00019945756934549298
sI30518392
F0.0005096902241908941
sI32189562
F0.00019945756934549298
sI40361151
F0.00019945756934549298
sI30084222
F0.00019945756934549298
sI5074047
F0.00019945756934549298
sI2796676
F0.00019945756934549298
sI10873990
F0.00019945756934549298
sI20434056
F0.00043555148181564533
sI32238731
F0.00019945756934549298
sI60556
F0.00043775760522343386
sI32238733
F0.00019945756934549298
sI31983469
F0.00019945756934549298
sI1125522
F0.00019945756934549298
sI37563539
F0.00019945756934549298
sI20286616
F0.00019945756934549298
sI8080538
F0.00019945756934549298
sI16845980
F0.00019945756934549298
sI8080542
F0.00019945756934549298
sI6057119
F0.00019945756934549298
sI8318114
F0.00032175760142639045
sI2509989
F0.00019945756934549298
sI20581542
F0.00019945756934549298
sI4607143
F0.00019945756934549298
sI20384937
F0.00019945756934549298
sI16387244
F0.00019945756934549298
sI3746994
F0.00019945756934549298
sI13405364
F0.00019945756934549298
sI7654601
F0.0005153482316512564
sI35581114
F0.00019945756934549298
sI16231612
F0.00019945756934549298
sI7343293
F0.00248484394284788
sI31435969
F0.0009766064500626205
sI14339271
F0.00019945756934549298
sI478409
F0.00019945756934549298
sI14339275
F0.00019945756934549298
sI15559885
F0.00019945756934549298
sI1699025
F0.00043775760522343386
sI666834
F0.0012025067388703851
sI14339283
F0.00019945756934549298
sI3681492
F0.00019945756934549298
sI3681493
F0.00019945756934549298
sI32238809
F0.00019945756934549298
sI31182042
F0.00019945756934549298
sI34065628
F0.00019945756934549298
sI1240286
F0.00019945756934549298
sI1240290
F0.00019945756934549298
sI22047973
F0.00019945756934549298
sI32967914
F0.00019945756934549298
sI773355
F0.00019945756934549298
sI6368494
F0.00019945756934549298
sI40709359
F0.00046707792291528764
sI535792
F0.00019945756934549298
sI20761842
F0.00019945756934549298
sI20761844
F0.00019945756934549298
sI4754677
F0.00019945756934549298
sI37383414
F0.00019945756934549298
sI789716
F0.00019945756934549298
sI39999360
F0.00019945756934549298
sI13419051
F0.00033228751546899655
sI13651205
F0.00019945756934549298
sI5041415
F0.00019945756934549298
sI5041417
F0.00019945756934549298
sI5848223
F0.00019945756934549298
sI5041423
F0.00019945756934549298
sI9006353
F0.00019945756934549298
sI9006356
F0.00019945756934549298
sI5041430
F0.00019945756934549298
sI3452186
F0.00019945756934549298
sI2600221
F0.00019945756934549298
sI13987105
F0.00019945756934549298
sI2600227
F0.0007076050113586081
sI30911780
F0.00019945756934549298
sI30911782
F0.00019945756934549298
sI5041447
F0.00019945756934549298
sI6843690
F0.00019945756934549298
sI21146923
F0.00033228751546899655
sI32320813
F0.00019945756934549298
sI2600239
F0.00019945756934549298
sI2518320
F0.00019945756934549298
sI5016883
F0.0003225527432029355
sI11136311
F0.0004895812387457063
sI12340537
F0.00019945756934549298
sI42560826
F0.00019945756934549298
sI42560829
F0.00019945756934549298
sI9000844
F0.0006192365880329854
sI35843408
F0.0004201745301094184
sI35843409
F0.0006393001457271162
sI3411289
F0.00019945756934549298
sI16182618
F0.0003167042696635264
sI9842020
F0.00019945756934549298
sI7556457
F0.00019945756934549298
sI3411310
F0.00019945756934549298
sI14232948
F0.00019945756934549298
sI21581176
F0.00019945756934549298
sI30911866
F0.00019945756934549298
sI4967803
F0.00019945756934549298
sI1002877
F0.00019945756934549298
sI4181374
F0.00019945756934549298
sI15609221
F0.00019945756934549298
sI5074311
F0.000822458249183525
sI30092683
F0.00019945756934549298
sI819554
F0.00046643906799737246
sI8998286
F0.001423809450931254
sI39939476
F0.00032175760142639045
sI4967829
F0.00019945756934549298
sI4967830
F0.00019945756934549298
sI43216279
F0.00019945756934549298
sI30919919
F0.00019945756934549298
sI30920095
F0.00019945756934549298
sI1410971
F0.00033228751546899655
sI9678247
F0.00019945756934549298
sI35229096
F0.00019945756934549298
sI35229097
F0.00019945756934549298
sI42487210
F0.00019945756934549298
sI5680557
F0.0009193148716416015
sI34925998
F0.00019945756934549298
sI42487217
F0.00019945756934549298
sI10603954
F0.00019945756934549298
sI32346697
F0.0003291832514810054
sI42487224
F0.00019945756934549298
sI3849460
F0.00019945756934549298
sI18083258
F0.00019945756934549298
sI43240891
F0.00019945756934549298
sI2846141
F0.0003291832514810054
sI42487231
F0.00019945756934549298
sI38342080
F0.0007202069852498841
sI16592329
F0.00019945756934549298
sI6475213
F0.00019945756934549298
sI2723279
F0.00019945756934549298
sI1797586
F0.00019945756934549298
sI773588
F0.00019945756934549298
sI2204238
F0.00019945756934549298
sI35778008
F0.00019945756934549298
sI20032986
F0.00019945756934549298
sI21179867
F0.00019945756934549298
sI2772447
F0.00019945756934549298
sI21695971
F0.00019945756934549298
sI13872619
F0.00019945756934549298
sI30379504
F0.00019945756934549298
sI6958577
F0.00019945756934549298
sI41651698
F0.00019945756934549298
sI3239415
F0.00019945756934549298
sI5426680
F0.00019945756934549298
sI32894466
F0.00019945756934549298
sI16035332
F0.00037747345060880984
sI4820487
F0.00019945756934549298
sI40709641
F0.00019945756934549298
sI3509770
F0.00019945756934549298
sI10038795
F0.00019945756934549298
sI257550
F0.0014019165716825273
sI7523856
F0.0003291832514810054
sI7523858
F0.0003291832514810054
sI22040086
F0.00019945756934549298
sI8908312
F0.00019945756934549298
sI14339611
F0.0018728185760065557
sI32697884
F0.0006630226416172013
sI1682973
F0.00019945756934549298
sI2882821
F0.00019945756934549298
sI1682977
F0.00019945756934549298
sI10120741
F0.00019945756934549298
sI31469100
F0.00019945756934549298
sI30322228
F0.00019945756934549298
sI33517112
F0.00019945756934549298
sI9211449
F0.00019945756934549298
sI40280671
F0.00019945756934549298
sI30797373
F0.00019945756934549298
sI1969728
F0.00019945756934549298
sI30700128
F0.00019945756934549298
sI3681861
F0.00033228751546899655
sI1969735
F0.00019945756934549298
sI39333452
F0.00019945756934549298
sI21922402
F0.00019945756934549298
sI39333454
F0.00019945756934549298
sI39292495
F0.00019945756934549298
sI12660305
F0.0005557605788254478
sI16641618
F0.00029101341268985935
sI33590867
F0.00019945756934549298
sI21474903
F0.00019945756934549298
sI21474904
F0.00019945756934549298
sI38727259
F0.00019945756934549298
sI16641628
F0.00029101341268985935
sI34229869
F0.00040226219834100694
sI511598
F0.00019945756934549298
sI11644532
F0.00019945756934549298
sI37777013
F0.0004388742612095055
sI40770836
F0.00032259337095147107
sI12504700
F0.00019945756934549298
sI3673728
F0.00019945756934549298
sI33197697
F0.00019945756934549298
sI10000321
F0.00032175760142639045
sI6844040
F0.0008064841146779656
sI30158474
F0.00019945756934549298
sI315021
F0.00019945756934549298
sI42888846
F0.00019945756934549298
sI12889743
F0.00019945756934549298
sI3419794
F0.00019945756934549298
sI3460756
F0.00019945756934549298
sI17673886
F0.00039105764213820046
sI2903715
F0.00019945756934549298
sI3796648
F0.00019945756934549298
sI6487324
F0.00025597054742809754
sI42503850
F0.00019945756934549298
sI9742279
F0.00019945756934549298
sI42503852
F0.00019945756934549298
sI1658543
F0.00019945756934549298
sI921265
F0.00019945756934549298
sI4091571
F0.00019945756934549298
sI2412216
F0.00019945756934549298
sI921276
F0.0003291832514810054
sI11341502
F0.00019945756934549298
sI5224395
F0.00019945756934549298
sI32394948
F0.00830934433844892
sI4771105
F0.00019945756934549298
sI41021128
F0.00019945756934549298
sI282314
F0.00019945756934549298
sI10727116
F0.00019945756934549298
sI10727117
F0.00019945756934549298
sI16486095
F0.00019945756934549298
sI39808722
F0.00019945756934549298
sI13594323
F0.00019945756934549298
sI6811352
F0.0004201745301094184
sI1363676
F0.00019945756934549298
sI10587870
F0.00019945756934549298
sI43224799
F0.00019945756934549298
sI43224801
F0.00019945756934549298
sI14044906
F0.00019945756934549298
sI12627691
F0.0003291832514810054
sI14307053
F0.00019945756934549298
sI8793838
F0.00019945756934549298
sI1193939
F0.00019945756934549298
sI488062
F0.0007202069852498841
sI30809549
F0.00019945756934549298
sI11235967
F0.00019945756934549298
sI3649283
F0.00019945756934549298
sI3518213
F0.00019945756934549298
sI184072
F0.00019945756934549298
sI10702602
F0.00019945756934549298
sI3649291
F0.00019945756934549298
sI16277061
F0.00019945756934549298
sI10964755
F0.00019945756934549298
sI3185967
F0.00019945756934549298
sI16002844
F0.00019945756934549298
sI37182768
F0.00019945756934549298
sI15404837
F0.00019945756934549298
sI11693862
F0.00019945756934549298
sI1134381
F0.00019945756934549298
sI937775
F0.00043775760522343386
sI11112244
F0.00019945756934549298
sI2838325
F0.00019945756934549298
sI98953
F0.00019945756934549298
sI2838328
F0.0004550470781637434
sI34811705
F0.00019945756934549298
sI13581621
F0.00019945756934549298
sI2838338
F0.00019945756934549298
sI36654915
F0.0003291832514810054
sI9047878
F0.00019945756934549298
sI34498530
F0.0003291832514810054
sI30519125
F0.0004283351308831539
sI30519126
F0.00019945756934549298
sI30519127
F0.00019945756934549298
sI32239450
F0.00019945756934549298
sI35843386
F0.00019945756934549298
sI8834914
F0.00019945756934549298
sI32370531
F0.00019945756934549298
sI15028076
F0.00019945756934549298
sI9056110
F0.00019945756934549298
sI5181296
F0.00019945756934549298
sI3608433
F0.00019945756934549298
sI2281333
F0.00019945756934549298
sI35745654
F0.00019945756934549298
sI21032826
F0.00019945756934549298
sI3608445
F0.00019945756934549298
sI1634176
F0.00019945756934549298
sI13745472
F0.0008651044688331113
sI3960709
F0.0003718221528005493
sI3559303
F0.00019945756934549298
sI3985293
F0.00040861990247294207
sI3985294
F0.0004090332433205655
sI3985295
F0.00040861990247294207
sI39137168
F0.00019945756934549298
sI9228178
F0.00019945756934549298
sI40341398
F0.00019945756934549298
sI12643032
F0.00019945756934549298
sI20249924
F0.00019945756934549298
sI30358832
F0.00019945756934549298
sI3657630
F0.00019945756934549298
sI32419743
F0.00019945756934549298
sI364448
F0.00019945756934549298
sI4524016
F0.00019945756934549298
sI2797474
F0.00019945756934549298
sI3985316
F0.0004090332433205655
sI3985317
F0.0003796844736520975
sI3968934
F0.0003291832514810054
sI4394919
F0.00043775760522343386
sI4534185
F0.00019945756934549298
sI4534186
F0.00019945756934549298
sI20230059
F0.00019945756934549298
sI1331116
F0.00019945756934549298
sI9490350
F0.00019945756934549298
sI36532143
F0.00019945756934549298
sI36532144
F0.00019945756934549298
sI41762120
F0.00019945756934549298
sI4804537
F0.00019945756934549298
sI485249
F0.00019945756934549298
sI17059774
F0.00019945756934549298
sI13103039
F0.0003291832514810054
sI2453443
F0.00019945756934549298
sI33877956
F0.0005385354378411203
sI8299170
F0.002208275427353629
sI3518415
F0.00019945756934549298
sI1355728
F0.00019945756934549298
sI13103057
F0.0003291832514810054
sI36745173
F0.00019945756934549298
sI50848267
F0.00019945756934549298
sI9203674
F0.0007287283988693615
sI1748960
F0.00019945756934549298
sI10211297
F0.00019945756934549298
sI3665896
F0.00019945756934549298
sI3665907
F0.00019945756934549298
sI1939454
F0.0012166911748323747
sI2536105
F0.00019945756934549298
sI21016580
F0.00043555148181564533
sI10170373
F0.00019945756934549298
sI528390
F0.00019945756934549298
sI32051207
F0.00019945756934549298
sI528393
F0.00019945756934549298
sI4919306
F0.00019945756934549298
sI45071
F0.00019945756934549298
sI11390997
F0.00019945756934549298
sI20680726
F0.00019945756934549298
sI1568791
F0.00019945756934549298
sI1568792
F0.00019945756934549298
sI2830361
F0.0003291832514810054
sI20680733
F0.00019945756934549298
sI41971747
F0.00019945756934549298
sI16666662
F0.00019945756934549298
sI14618663
F0.00019945756934549298
sI978986
F0.00019945756934549298
sI978988
F0.00019945756934549298
sI11554868
F0.00043775760522343386
sI716853
F0.00019945756934549298
sI4945929
F0.00019945756934549298
sI11284549
F0.00019945756934549298
sI14383117
F0.0013833545751421642
sI1716307
F0.00019945756934549298
sI30855252
F0.00019945756934549298
sI14970966
F0.00019945756934549298
sI40415929
F0.00019945756934549298
sI14438491
F0.0008797711925705629
sI14176954
F0.0003291832514810054
sI9244769
F0.00019945756934549298
sI348261
F0.0006362413855193293
sI348262
F0.00019945756934549298
sI40783977
F0.00019945756934549298
sI40783978
F0.00019945756934549298
sI15470701
F0.0019946693274164947
sI7811186
F0.00039105764213820046
sI12333172
F0.00043775760522343386
sI2584694
F0.00019945756934549298
sI69760
F0.00019945756934549298
sI3911815
F0.00019945756934549298
sI37023883
F0.00019945756934549298
sI4747408
F0.00019945756934549298
sI3281043
F0.00019945756934549298
sI33452183
F0.00019945756934549298
sI20390596
F0.00019945756934549298
sI3518620
F0.00019945756934549298
sI31508159
F0.00019945756934549298
sI2969759
F0.0003291832514810054
sI21917858
F0.00019945756934549298
sI20943011
F0.00019945756934549298
sI32223400
F0.00019945756934549298
sI2551978
F0.00019945756934549298
sI2551979
F0.00019945756934549298
sI13340849
F0.00019945756934549298
sI471221
F0.00019945756934549298
sI20893879
F0.00019945756934549298
sI4092089
F0.00019945756934549298
sI32428222
F0.00019945756934549298
sI5738688
F0.00019945756934549298
sI7082178
F0.00040226219834100694
sI299205
F0.0003291832514810054
sI3281096
F0.00019945756934549298
sI11440329
F0.00019945756934549298
sI30003402
F0.00019945756934549298
sI1219959
F0.0015292041372986568
sI4911310
F0.00019945756934549298
sI14258386
F0.00019945756934549298
sI5689555
F0.0018089728608174456
sI1159380
F0.00019945756934549298
sI15323349
F0.00019945756934549298
sI3022427
F0.00019945756934549298
sI1159386
F0.00019945756934549298
sI1337381
F0.00019945756934549298
sI14717152
F0.00019945756934549298
sI1986792
F0.00019945756934549298
sI21860585
F0.00019945756934549298
sI2511083
F0.00019945756934549298
sI1273213
F0.00043775760522343386
sI40825074
F0.00019945756934549298
sI38646004
F0.00019945756934549298
sI8229111
F0.00019945756934549298
sI839930
F0.00019945756934549298
sI32108795
F0.00019945756934549298
sI17633625
F0.002535000242274704
sI30626049
F0.00019945756934549298
sI14205654
F0.00019945756934549298
sI18682126
F0.00019945756934549298
sI18682128
F0.00019945756934549298
sI12136722
F0.0015128184097112352
sI1110295
F0.00019945756934549298
sI21279001
F0.00043775760522343386
sI21279002
F0.0004201745301094184
sI20546266
F0.00019945756934549298
sI12136742
F0.00033228751546899655
sI32346410
F0.00019945756934549298
sI20623659
F0.00019945756934549298
sI13193519
F0.00019945756934549298
sI37859633
F0.00032259337095147107
sI1233203
F0.00019945756934549298
sI41062711
F0.00019945756934549298
sI4198715
F0.0005131045980070607
sI42078524
F0.00019945756934549298
sI41062717
F0.00019945756934549298
sI1806654
F0.0008572291835872938
sI2224450
F0.00019945756934549298
sI30134595
F0.00019945756934549298
sI1806662
F0.00019945756934549298
sI4198727
F0.00019945756934549298
sI1806664
F0.00019945756934549298
sI4868152
F0.00019945756934549298
sI12964178
F0.00019945756934549298
sI20025685
F0.00019945756934549298
sI5026137
F0.004892001268013544
sI14061917
F0.00029101341268985935
sI32084320
F0.00019945756934549298
sI15569252
F0.00019945756934549298
sI201063
F0.00019945756934549298
sI4239721
F0.00019945756934549298
sI4182378
F0.00019945756934549298
sI11981163
F0.0012025067388703851
sI21803375
F0.0004201745301094184
sI9791677
F0.00019945756934549298
sI9195894
F0.0004550470781637434
sI18256247
F0.00019945756934549298
sI18704447
F0.00019945756934549298
sI78205
F0.00019945756934549298
sI17830270
F0.0004086272762609719
sI4182399
F0.00019945756934549298
sI8714304
F0.00043555148181564533
sI30962050
F0.00019945756934549298
sI30962051
F0.00019945756934549298
sI32076164
F0.00019945756934549298
sI31707530
F0.00019945756934549298
sI9220492
F0.00019945756934549298
sI1706050
F0.00019945756934549298
sI4494
F0.00019945756934549298
sI16920978
F0.00019945756934549298
sI4157843
F0.00019945756934549298
sI22106516
F0.00019945756934549298
sI4460956
F0.00019945756934549298
sI8982943
F0.00019945756934549298
sI3101094
F0.00019945756934549298
sI20861356
F0.00019945756934549298
sI3985837
F0.00019945756934549298
sI3985843
F0.00019945756934549298
sI39809462
F0.00019945756934549298
sI13963703
F0.00019945756934549298
sI13963704
F0.00019945756934549298
sI3092924
F0.00019945756934549298
sI975605
F0.0006933471140416843
sI8352194
F0.00019945756934549298
sI717254
F0.00019945756934549298
sI42900898
F0.00019945756934549298
sI7718989
F0.0008344531852212354
sI3371472
F0.00019945756934549298
sI13373907
F0.00516225730489821
sI38056408
F0.00019945756934549298
sI2249177
F0.0005557605788254478
sI561629
F0.00019945756934549298
sI32076255
F0.00019945756934549298
sI2200038
F0.00019945756934549298
sI33927657
F0.00019945756934549298
sI3183085
F0.00019945756934549298
sI4755950
F0.00019945756934549298
sI12046832
F0.00019945756934549298
sI14986664
F0.0008344531852212354
sI3322354
F0.0005557605788254478
sI791029
F0.00019945756934549298
sI791031
F0.0005153482316512564
sI14725628
F0.00019945756934549298
sI20926975
F0.00019945756934549298
sI2159104
F0.00019945756934549298
sI12278640
F0.00019945756934549298
sI37941762
F0.0003167042696635264
sI50821206
F0.00019945756934549298
sI18451163
F0.00019945756934549298
sI1446407
F0.00019945756934549298
sI14848520
F0.00019945756934549298
sI20172148
F0.00019945756934549298
sI365314
F0.00019945756934549298
sI21095966
F0.00019945756934549298
sI40161825
F0.00019945756934549298
sI21910051
F0.00019945756934549298
sI4436516
F0.00032175760142639045
sI1380902
F0.00019945756934549298
sI1905192
F0.00019945756934549298
sI18551338
F0.00019945756934549298
sI4108844
F0.00019945756934549298
sI20877873
F0.00019945756934549298
sI6689333
F0.00019945756934549298
sI6689335
F0.00019945756934549298
sI987705
F0.00019945756934549298
sI4657722
F0.00019945756934549298
sI520763
F0.0006933471140416843
sI4223548
F0.00019945756934549298
sI987710
F0.00019945756934549298
sI15774272
F0.00019945756934549298
sI930371
F0.00019945756934549298
sI20107847
F0.00019945756934549298
sI35525192
F0.00019945756934549298
sI35525193
F0.00019945756934549298
sI1675853
F0.00043775760522343386
sI975629
F0.00019945756934549298
sI3385443
F0.00019945756934549298
sI41214734
F0.00019945756934549298
sI10416728
F0.00019945756934549298
sI13611613
F0.00019945756934549298
sI38646368
F0.00043555148181564533
sI34263824
F0.00042731247459923356
sI1273275
F0.00019945756934549298
sI7733541
F0.00019945756934549298
sI5083459
F0.00019945756934549298
sI12374638
F0.00019945756934549298
sI6115954
F0.00019945756934549298
sI31650421
F0.00019945756934549298
sI4231803
F0.00019945756934549298
sI18461308
F0.00019945756934549298
sI488061
F0.00019945756934549298
sI33649278
F0.00019945756934549298
sI53887
F0.00019945756934549298
sI126400
F0.0004550470781637434
sI32141959
F0.00033228751546899655
sI32141960
F0.00019945756934549298
sI3347082
F0.0006192365880329854
sI2454169
F0.00019945756934549298
sI12260003
F0.00040226219834100694
sI20828837
F0.00019945756934549298
sI1397416
F0.00019945756934549298
sI11072169
F0.0003569570268199963
sI15362725
F0.00019945756934549298
sI4731571
F0.00019945756934549298
sI16093877
F0.00019945756934549298
sI30831287
F0.0013531986564137104
sI275128
F0.00019945756934549298
sI37524153
F0.00019945756934549298
sI9999034
F0.00019945756934549298
sI41841339
F0.0003291832514810054
sI15322081
F0.00019945756934549298
sI32633540
F0.00019945756934549298
sI7410373
F0.0011653324831735225
sI3183303
F0.00019945756934549298
sI3855055
F0.00019945756934549298
sI13297784
F0.00019945756934549298
sI43111124
F0.00019945756934549298
sI1921752
F0.00019945756934549298
sI8843998
F0.00019945756934549298
sI2429664
F0.00019945756934549298
sI2380515
F0.00019945756934549298
sI21279463
F0.00019945756934549298
sI16069354
F0.00019945756934549298
sI34394861
F0.0003689965035933066
sI15913710
F0.005474693845150772
sI1233647
F0.000928102390366627
sI9843440
F0.00019945756934549298
sI8844018
F0.00019945756934549298
sI8844019
F0.00019945756934549298
sI32633589
F0.00019945756934549298
sI10736374
F0.00019945756934549298
sI8844023
F0.00019945756934549298
sI41874168
F0.00019945756934549298
sI4551422
F0.00019945756934549298
sI21247
F0.00019945756934549298
sI3248896
F0.00019945756934549298
sI31666945
F0.00019945756934549298
sI41620226
F0.00019945756934549298
sI41620227
F0.0003291832514810054
sI42496772
F0.00019945756934549298
sI35574533
F0.00019945756934549298
sI7140102
F0.0006913580123270091
sI17838502
F0.0006304743340022129
sI15610632
F0.00019945756934549298
sI33152931
F0.00019945756934549298
sI3126027
F0.00019945756934549298
sI971536
F0.00019945756934549298
sI45844
F0.00019945756934549298
sI14373655
F0.00019945756934549298
sI8803098
F0.00019945756934549298
sI29468
F0.0006933471140416843
sI635685
F0.00019945756934549298
sI16069414
F0.00019945756934549298
sI21066537
F0.00019945756934549298
sI7959338
F0.00019945756934549298
sI31707950
F0.00019945756934549298
sI20048008
F0.00019945756934549298
sI987954
F0.00019945756934549298
sI2913080
F0.00019945756934549298
sI18961212
F0.00019945756934549298
sI13062979
F0.00019945756934549298
sI7533381
F0.00019945756934549298
sI619334
F0.00019945756934549298
sI14914377
F0.00019945756934549298
sI586571
F0.00019945756934549298
sI31658833
F0.00019945756934549298
sI4207447
F0.00019945756934549298
sI43070298
F0.00019945756934549298
sI43070301
F0.00032175760142639045
sI13579109
F0.00019945756934549298
sI2478950
F0.00019945756934549298
sI1512295
F0.00019945756934549298
sI21427004
F0.00019945756934549298
sI31822702
F0.002223422019296171
sI21042031
F0.00019945756934549298
sI21042036
F0.00019945756934549298
sI15078264
F0.00038784300742784243
sI38118207
F0.00019945756934549298
sI18264956
F0.002336571316753628
sI11318148
F0.00019945756934549298
sI2388870
F0.00019945756934549298
sI1381255
F0.00019945756934549298
sI15078280
F0.00019945756934549298
sI6725100
F0.00019945756934549298
sI1381258
F0.0006337157553661205
sI33239955
F0.00019945756934549298
sI18486165
F0.00019945756934549298
sI1620121
F0.0006240298006643147
sI34374468
F0.00019945756934549298
sI3969947
F0.00019945756934549298
sI3986333
F0.0006451271557907178
sI5116833
F0.00019945756934549298
sI51221413
F0.0004410505508001837
sI422824
F0.0004644140777809746
sI7164841
F0.0003167042696635264
sI9122736
F0.00019945756934549298
sI30774195
F0.00019945756934549298
sI988087
F0.00019945756934549298
sI33261727
F0.00019945756934549298
sI41751490
F0.00019945756934549298
sI21263302
F0.00033228751546899655
sI12342219
F0.0004555544134809411
sI40326099
F0.00019945756934549298
sI32707545
F0.00019945756934549298
sI3914871
F0.00019945756934549298
sI4581541
F0.00019945756934549298
sI1283044
F0.00019945756934549298
sI12342247
F0.0005535018293613127
sI12342249
F0.0009559170959048324
sI40530925
F0.00019945756934549298
sI5895154
F0.004898101943933987
sI38609747
F0.00019945756934549298
sI4010997
F0.00019945756934549298
sI13875370
F0.00038784300742784243
sI33657854
F0.00019945756934549298
sI3216386
F0.00036627887688058387
sI13644803
F0.00032175760142639045
sI1971204
F0.00019945756934549298
sI42505221
F0.00019945756934549298
sI13644806
F0.00019945756934549298
sI1971207
F0.00019945756934549298
sI42963977
F0.00019945756934549298
sI38908938
F0.00019945756934549298
sI8549387
F0.0010319679925629313
sI30897164
F0.00043555148181564533
sI20025681
F0.00019945756934549298
sI9253907
F0.0005096902241908941
sI955415
F0.0004283351308831539
sI16471067
F0.00019945756934549298
sI1537052
F0.0004550470781637434
sI21402653
F0.00019945756934549298
sI4191265
F0.00019945756934549298
sI2383756
F0.00019945756934549298
sI20673579
F0.0003689965035933066
sI6628189
F0.0004283351308831539
sI1750065
F0.00019945756934549298
sI1332283
F0.00019945756934549298
sI41651722
F0.00019945756934549298
sI13921803
F0.0004550470781637434
sI12440652
F0.001239118591564059
sI14038095
F0.00019945756934549298
sI10638417
F0.00019945756934549298
sI20475406
F0.00019945756934549298
sI17781846
F0.0015704793993619112
sI14988375
F0.00019945756934549298
sI30512221
F0.00019945756934549298
sI40719455
F0.00019945756934549298
sI20475408
F0.00019945756934549298
sI6902884
F0.00019945756934549298
sI1782890
F0.0003291832514810054
sI18510956
F0.00019945756934549298
sI324717
F0.00019945756934549298
sI2697405
F0.00019945756934549298
sI15369065
F0.00019945756934549298
sI70776
F0.00019945756934549298
sI1504377
F0.0003291832514810054
sI70784
F0.00019945756934549298
sI12642496
F0.00019945756934549298
sI9786498
F0.00019945756934549298
sI70787
F0.00019945756934549298
sI14881929
F0.0007078346284481726
sI13186186
F0.00019945756934549298
sI9221260
F0.00019945756934549298
sI14881934
F0.0004689800958305964
sI31945874
F0.0004201745301094184
sI857236
F0.0004550470781637434
sI39110356
F0.00019945756934549298
sI38656197
F0.0003291832514810054
sI10038811
F0.00019945756934549298
sI1504422
F0.0003291832514810054
sI36500648
F0.00019945756934549298
sI30682652
F0.00019945756934549298
sI38859949
F0.00019945756934549298
sI21909021
F0.00019945756934549298
sI42833075
F0.00019945756934549298
sI30897335
F0.009321499664902996
sI12923764
F0.00019945756934549298
sI9163966
F0.00019945756934549298
sI40256373
F0.00032175760142639045
sI13522112
F0.00019945756934549298
sI8526540
F0.005895251033342046
sI32134341
F0.00019945756934549298
sI37247266
F0.00019945756934549298
sI2757837
F0.00019945756934549298
sI1701073
F0.00032175760142639045
sI2757842
F0.00019945756934549298
sI2651349
F0.003754541576756557
sI16340182
F0.00019945756934549298
sI5059799
F0.00019945756934549298
sI34329821
F0.0005385354378411203
sI1954119
F0.00019945756934549298
sI660709
F0.00019945756934549298
sI4513092
F0.00019945756934549298
sI5223661
F0.00019945756934549298
sI42779517
F0.0008678035660338716
sI7779571
F0.000822458249183525
sI22148345
F0.00032175760142639045
sI3462400
F0.00019945756934549298
sI34411777
F0.00019945756934549298
sI34411779
F0.00019945756934549298
sI1147777
F0.00019945756934549298
sI3805768
F0.00019945756934549298
sI12645641
F0.00019945756934549298
sI40375562
F0.0003291832514810054
sI15136983
F0.00019945756934549298
sI42759437
F0.00019945756934549298
sI4150543
F0.00019945756934549298
sI10974480
F0.0007435638835986045
sI4117787
F0.00019945756934549298
sI3738937
F0.00019945756934549298
sI11580712
F0.00019945756934549298
sI242567
F0.00019945756934549298
sI1135920
F0.00019945756934549298
sI21021576
F0.00019945756934549298
sI2897208
F0.00019945756934549298
sI39695674
F0.00019945756934549298
sI20157755
F0.00019945756934549298
sI1635646
F0.00019945756934549298
sI17732927
F0.0003291832514810054
sI20657472
F0.00019945756934549298
sI11670851
F0.0004084611442998419
sI3601736
F0.00019945756934549298
sI3601744
F0.00019945756934549298
sI13053496
F0.00019945756934549298
sI12645718
F0.00019945756934549298
sI4126040
F0.00019945756934549298
sI21337437
F0.00033988855082919627
sI11031904
F0.00019945756934549298
sI30725474
F0.00019945756934549298
sI5068134
F0.00019945756934549298
sI2512234
F0.00019945756934549298
sI32187282
F0.00019945756934549298
sI37786993
F0.00032259337095147107
sI38628463
F0.00019945756934549298
sI42022261
F0.0004644140777809746
sI42022263
F0.0004129987946021951
sI710013
F0.00019945756934549298
sI3749254
F0.00019945756934549298
sI1381767
F0.00019945756934549298
sI14726541
F0.00019945756934549298
sI12825998
F0.00019945756934549298
sI529807
F0.00019945756934549298
sI21853586
F0.00019945756934549298
sI12400020
F0.00019945756934549298
sI3274136
F0.00019945756934549298
sI11441564
F0.00019945756934549298
sI243101
F0.00019945756934549298
sI11441567
F0.00019945756934549298
sI6780324
F0.00019945756934549298
sI1701292
F0.00019945756934549298
sI1160621
F0.00019945756934549298
sI9196974
F0.00019945756934549298
sI21444015
F0.00019945756934549298
sI30750137
F0.00019945756934549298
sI2356667
F0.00019945756934549298
sI20174271
F0.0004388742612095055
sI20174273
F0.0003980661331817197
sI120260
F0.00019945756934549298
sI2356677
F0.00019945756934549298
sI120262
F0.00019945756934549298
sI34943905
F0.00019945756934549298
sI9827785
F0.00019945756934549298
sI13153739
F0.00019945756934549298
sI37778892
F0.00019945756934549298
sI13153741
F0.00019945756934549298
sI43210195
F0.00019945756934549298
sI21845463
F0.00019945756934549298
sI30848472
F0.00019945756934549298
sI3749337
F0.00019945756934549298
sI3896794
F0.0004550470781637434
sI6501853
F0.00019945756934549298
sI30414302
F0.00019945756934549298
sI39818719
F0.00019945756934549298
sI39818720
F0.00019945756934549298
sI40712444
F0.00019945756934549298
sI16266733
F0.00019945756934549298
sI5264881
F0.00019945756934549298
sI42513908
F0.0004895812387457063
sI33658358
F0.00019945756934549298
sI734121
F0.00019945756934549298
sI30809684
F0.00019945756934549298
sI31405562
F0.0003291832514810054
sI40891899
F0.00019945756934549298
sI10232747
F0.00019945756934549298
sI21458519
F0.00019945756934549298
sI980496
F0.00019945756934549298
sI980497
F0.00019945756934549298
sI20141590
F0.00019945756934549298
sI32333401
F0.00019945756934549298
sI33977882
F0.0005237509738899975
sI15210012
F0.00019945756934549298
sI2545181
F0.00019945756934549298
sI2545184
F0.00019945756934549298
sI4503073
F0.00019945756934549298
sI32380450
F0.00019945756934549298
sI12500571
F0.00019945756934549298
sI6731305
F0.00019945756934549298
sI19054866
F0.00019945756934549298
sI4625762
F0.00019945756934549298
sI20903472
F0.00019945756934549298
sI4585011
F0.0003291832514810054
sI8115766
F0.00019945756934549298
sI8689208
F0.00019945756934549298
sI12973625
F0.0003674363403738199
sI12274462
F0.00019945756934549298
sI18757182
F0.00019945756934549298
sI20272705
F0.00019945756934549298
sI20272706
F0.00019945756934549298
sI890436
F0.00019945756934549298
sI31405638
F0.00019945756934549298
sI40654407
F0.00019945756934549298
sI6633033
F0.00019945756934549298
sI30373451
F0.00019945756934549298
sI15652428
F0.00019945756934549298
sI22009421
F0.00019945756934549298
sI677455
F0.00019945756934549298
sI21976657
F0.00019945756934549298
sI6346328
F0.0006630226416172013
sI6346330
F0.0008528413709838184
sI21755492
F0.00019945756934549298
sI1185381
F0.00019945756934549298
sI33314411
F0.0004895812387457063
sI5486188
F0.0006746302251283736
sI12580462
F0.00038595039732120044
sI12580463
F0.00019945756934549298
sI17815154
F0.00019945756934549298
sI10679923
F0.00019945756934549298
sI33519221
F0.00019945756934549298
sI10253943
F0.00019945756934549298
sI21468794
F0.00019945756934549298
sI5486205
F0.0006746302251283736
sI5486209
F0.0006746302251283736
sI5486215
F0.00019945756934549298
sI17187400
F0.0004410505508001837
sI14218890
F0.00019945756934549298
sI14218891
F0.00019945756934549298
sI33494670
F0.00019945756934549298
sI1789549
F0.00019945756934549298
sI31200913
F0.00019945756934549298
sI9336466
F0.00019945756934549298
sI31200920
F0.0002842270364693998
sI87705
F0.00019945756934549298
sI20485786
F0.00019945756934549298
sI20682397
F0.00019945756934549298
sI32274083
F0.00019945756934549298
sI43242438
F0.0005983592727510829
sI40261288
F0.00019945756934549298
sI13285034
F0.00019945756934549298
sI13842095
F0.00019945756934549298
sI18527922
F0.000822458249183525
sI10958518
F0.00019945756934549298
sI21316553
F0.00019945756934549298
sI7845560
F0.0037082155252916365
sI34051770
F0.00019945756934549298
sI21149372
F0.00019945756934549298
sI30807746
F0.00019945756934549298
sI14546629
F0.00019945756934549298
sI21632717
F0.00019945756934549298
sI18593487
F0.00019945756934549298
sI7075537
F0.0008829580851197167
sI21632722
F0.00019945756934549298
sI21632723
F0.00019945756934549298
sI7075540
F0.001122374776983729
sI13080278
F0.00019945756934549298
sI710359
F0.00019945756934549298
sI50829018
F0.00019945756934549298
sI10847184
F0.00019945756934549298
sI15152866
F0.00019945756934549298
sI38450919
F0.00019945756934549298
sI38450920
F0.00019945756934549298
sI31987440
F0.00019945756934549298
sI3995382
F0.00019945756934549298
sI17553145
F0.00019945756934549298
sI17553146
F0.00019945756934549298
sI3810968
F0.00019945756934549298
sI7071265
F0.00019945756934549298
sI2594582
F0.00019945756934549298
sI6502167
F0.00019945756934549298
sI4093720
F0.00019945756934549298
sI33928986
F0.00019945756934549298
sI1521436
F0.0007798478180254456
sI2594589
F0.00019945756934549298
sI42948383
F0.00019945756934549298
sI3831584
F0.0023677914855105573
sI800546
F0.00019945756934549298
sI20608824
F0.00019945756934549298
sI14350142
F0.00032175760142639045
sI2258752
F0.00019945756934549298
sI14047041
F0.0006583475639446271
sI14339284
F0.00019945756934549298
sI13457718
F0.0003291832514810054
sI1005385
F0.00019945756934549298
sI37836618
F0.00032259337095147107
sI10032972
F0.00019945756934549298
sI36632397
F0.00019945756934549298
sI4618063
F0.00019945756934549298
sI2938708
F0.00019945756934549298
sI14366551
F0.00019945756934549298
sI13711194
F0.00019945756934549298
sI6190944
F0.00019945756934549298
sI96097
F0.00019945756934549298
sI309090
F0.00019945756934549298
sI6190950
F0.00019945756934549298
sI13825901
F0.0007435638835986045
sI17536879
F0.00032259337095147107
sI12539760
F0.0003291832514810054
sI7772018
F0.00019945756934549298
sI202612
F0.00019945756934549298
sI41736056
F0.00019945756934549298
sI35278484
F0.00019945756934549298
sI2275194
F0.00019945756934549298
sI37336959
F0.00019945756934549298
sI20862848
F0.00019945756934549298
sI15618909
F0.0011653324831735225
sI7772039
F0.0007732689033392079
sI1357704
F0.000387781807797121
sI17736684
F0.00019945756934549298
sI22050700
F0.00019945756934549298
sI9000845
F0.0006539817390251783
sI1357716
F0.00019945756934549298
sI661397
F0.00019945756934549298
sI21247902
F0.00019945756934549298
sI34173939
F0.0005385354378411203
sI1980344
F0.00019945756934549298
sI2234302
F0.0006933471140416843
sI14776257
F0.00019945756934549298
sI2070470
F0.00019945756934549298
sI36927431
F0.0003754673500212457
sI63435
F0.0006933471140416843
sI6096
F0.00038784300742784243
sI1193938
F0.0005557605788254478
sI1513427
F0.001196922348509389
sI13055959
F0.0005131045980070607
sI1513433
F0.0005535018293613127
sI20830171
F0.00019945756934549298
sI20199400
F0.00019945756934549298
sI1513449
F0.00019945756934549298
sI13531114
F0.00019945756934549298
sI38155113
F0.00019945756934549298
sI8411120
F0.0011486724821587108
sI3373054
F0.00039105764213820046
sI4478976
F0.00019945756934549298
sI39139332
F0.00019945756934549298
sI21920735
F0.00019945756934549298
sI3241993
F0.00019945756934549298
sI37337100
F0.00019945756934549298
sI21288973
F0.00019945756934549298
sI32110608
F0.00019945756934549298
sI32479250
F0.0007435638835986045
sI366611
F0.00019945756934549298
sI4847638
F0.00019945756934549298
sI1136664
F0.00019945756934549298
sI13957156
F0.00019945756934549298
sI1939493
F0.00019945756934549298
sI14383145
F0.00019945756934549298
sI40706450
F0.00019945756934549298
sI1202224
F0.00019945756934549298
sI9140274
F0.0013936560781112773
sI33484914
F0.00019945756934549298
sI20715579
F0.00019945756934549298
sI963594
F0.001329714521011634
sI3078208
F0.00019945756934549298
sI6936644
F0.00473364880482982
sI32061509
F0.00019945756934549298
sI15792198
F0.0004468189706192482
sI15792201
F0.0003231382699823706
sI15792202
F0.0003231382699823706
sI9779275
F0.00019945756934549298
sI11417681
F0.00019945756934549298
sI34330706
F0.00019945756934549298
sI1344526
F0.00019945756934549298
sI34805846
F0.00019945756934549298
sI1153112
F0.0005096902241908941
sI7108698
F0.00019945756934549298
sI7280731
F0.00019945756934549298
sI13088862
F0.000387781807797121
sI14465119
F0.00019945756934549298
sI35706982
F0.00019945756934549298
sI1161319
F0.00019945756934549298
sI12529340
F0.00019945756934549298
sI30832749
F0.00043555148181564533
sI30832750
F0.00043555148181564533
sI3452606
F0.00019945756934549298
sI32536695
F0.0003291832514810054
sI5118427
F0.00019945756934549298
sI14325887
F0.00033228751546899655
sI3913856
F0.00019945756934549298
sI5136064
F0.00019945756934549298
sI11530453
F0.00019945756934549298
sI2381955
F0.00019945756934549298
sI9730182
F0.00019945756934549298
sI22100104
F0.00019945756934549298
sI30816393
F0.00019945756934549298
sI1276042
F0.00019945756934549298
sI11678743
F0.00019945756934549298
sI3192976
F0.00019945756934549298
sI655043
F0.00019945756934549298
sI5503124
F0.00019945756934549298
sI5511318
F0.0007470070753065263
sI36870296
F0.00019945756934549298
sI12834969
F0.00019945756934549298
sI13605026
F0.00019945756934549298
sI1528859
F0.00019945756934549298
sI31835164
F0.0006192365880329854
sI21919914
F0.00019945756934549298
sI14710956
F0.00019945756934549298
sI4511917
F0.00019945756934549298
sI31835165
F0.0005211517929016746
sI9690825
F0.0003291832514810054
sI43230784
F0.00019945756934549298
sI1339082
F0.00019945756934549298
sI10500286
F0.0009463649963079764
sI21854399
F0.00019945756934549298
sI8231106
F0.0003167042696635264
sI5585092
F0.00019945756934549298
sI30275781
F0.00019945756934549298
sI16005321
F0.00019945756934549298
sI15784150
F0.00036627887688058387
sI6719865
F0.003964229673613374
sI3387087
F0.00019945756934549298
sI17160414
F0.00019945756934549298
sI13378598
F0.00019945756934549298
sI17938663
F0.00019945756934549298
sI17938664
F0.0004895812387457063
sI10868969
F0.00019945756934549298
sI6043883
F0.00019945756934549298
sI41228524
F0.0012362294267153752
sI33077485
F0.0004895812387457063
sI31963379
F0.0004344535525158469
sI6895861
F0.00032259337095147107
sI21158134
F0.00019945756934549298
sI1038586
F0.00019945756934549298
sI10868988
F0.0005883843596044447
sI31717639
F0.00032259337095147107
sI2685192
F0.00019945756934549298
sI13665324
F0.00019945756934549298
sI3356939
F0.00039921189980645955
sI71948
F0.003282432936090595
sI10631554
F0.00019945756934549298
sI21240080
F0.00043775760522343386
sI1841425
F0.00019945756934549298
sI15874322
F0.00019945756934549298
sI2734355
F0.0003291832514810054
sI15874325
F0.00019945756934549298
sI15874327
F0.00019945756934549298
sI15243544
F0.00019945756934549298
sI15874329
F0.00019945756934549298
sI2734363
F0.00019945756934549298
sI37247265
F0.00019945756934549298
sI309538
F0.00019945756934549298
sI18569509
F0.00019945756934549298
sI30849318
F0.00019945756934549298
sI9312551
F0.0003167042696635264
sI39177948
F0.00019945756934549298
sI10795310
F0.00019945756934549298
sI1980720
F0.0021878540285322746
sI35674418
F0.00019945756934549298
sI10795315
F0.00019945756934549298
sI30783796
F0.00019945756934549298
sI2431286
F0.00019945756934549298
sI11090231
F0.00019945756934549298
sI7084346
F0.00019945756934549298
sI1382718
F0.00019945756934549298
sI1784127
F0.00019945756934549298
sI11966784
F0.00259200255989695
sI14760260
F0.00019945756934549298
sI15219014
F0.00019945756934549298
sI17307982
F0.00019945756934549298
sI15219025
F0.0006933471140416843
sI6355283
F0.00019945756934549298
sI4675924
F0.00019945756934549298
sI6355285
F0.00019945756934549298
sI14121304
F0.00019945756934549298
sI12835161
F0.0011653324831735225
sI15122149
F0.00019945756934549298
sI38680933
F0.00019945756934549298
sI20265327
F0.00019945756934549298
sI15595890
F0.00019945756934549298
sI260467
F0.00019945756934549298
sI3807605
F0.00019945756934549298
sI670075
F0.00033228751546899655
sI3597376
F0.00019945756934549298
sI2529666
F0.0005535018293613127
sI2529667
F0.0004555544134809411
sI41408900
F0.00027939977370295267
sI3561864
F0.00019945756934549298
sI6046786
F0.00019945756934549298
sI1178006
F0.00019945756934549298
sI4102556
F0.00019945756934549298
sI5708192
F0.00019945756934549298
sI10058146
F0.00019945756934549298
sI22149540
F0.00019945756934549298
sI14727592
F0.00019945756934549298
sI3078556
F0.00019945756934549298
sI1571242
F0.00019945756934549298
sI42055
F0.00019945756934549298
sI20494769
F0.00019945756934549298
sI2734517
F0.00019945756934549298
sI10009018
F0.00019945756934549298
sI22075839
F0.00019945756934549298
sI20740544
F0.00019945756934549298
sI43104705
F0.00027688496188704644
sI37099973
F0.00019945756934549298
sI432582
F0.00019945756934549298
sI1833419
F0.00019945756934549298
sI38418892
F0.00032259337095147107
sI37788111
F0.0003291832514810054
sI35011024
F0.00019945756934549298
sI30718417
F0.00019945756934549298
sI41062718
F0.00019945756934549298
sI5700053
F0.00019945756934549298
sI37524559
F0.00019945756934549298
sI34109919
F0.00019945756934549298
sI21862881
F0.00019945756934549298
sI13644802
F0.00032175760142639045
sI21435471
F0.00019945756934549298
sI37542380
F0.00019945756934549298
sI2832877
F0.00019945756934549298
sI3078638
F0.00019945756934549298
sI31218
F0.00019945756934549298
sI20576681
F0.00019945756934549298
sI31224
F0.00019945756934549298
sI14547450
F0.00019945756934549298
sI14547453
F0.00019945756934549298
sI21435477
F0.00019945756934549298
sI1212734
F0.00833045308882842
sI1784235
F0.00019945756934549298
sI21453316
F0.00019945756934549298
sI4766220
F0.00019945756934549298
sI37804578
F0.00019945756934549298
sI38738467
F0.00019945756934549298
sI4176421
F0.00019945756934549298
sI21346854
F0.00019945756934549298
sI21821991
F0.00019945756934549298
sI5264477
F0.00019945756934549298
sI38569054
F0.00019945756934549298
sI20609597
F0.00019945756934549298
sI3149225
F0.00019945756934549298
sI6642242
F0.0003291832514810054
sI2218564
F0.0003291832514810054
sI3471942
F0.00019945756934549298
sI20167241
F0.00019945756934549298
sI5159498
F0.00033988855082919627
sI20159052
F0.00043555148181564533
sI3867746
F0.00019945756934549298
sI12114511
F0.00019945756934549298
sI5012048
F0.00019945756934549298
sI37616219
F0.00019945756934549298
sI30104156
F0.00019945756934549298
sI13081188
F0.00019945756934549298
sI4684392
F0.00019945756934549298
sI1105682
F0.000387781807797121
sI9927279
F0.00019945756934549298
sI8115778
F0.0008045765928211068
sI16652918
F0.0009028618234874544
sI8616567
F0.00019945756934549298
sI3214275
F0.00019945756934549298
sI17635962
F0.00019945756934549298
sI1059263
F0.0011734874856991209
sI16315498
F0.00019945756934549298
sI10541504
F0.00019945756934549298
sI30800514
F0.00019945756934549298
sI13458051
F0.00019945756934549298
sI5577350
F0.002609030585023291
sI4586119
F0.00019945756934549298
sI21641865
F0.00019945756934549298
sI33553035
F0.00019945756934549298
sI30890637
F0.00019945756934549298
sI14400142
F0.000564536096908239
sI37927575
F0.00019945756934549298
sI70767
F0.0004550470781637434
sI22002333
F0.00019945756934549298
sI15415970
F0.00019945756934549298
sI50586381
F0.00019945756934549298
sI30489030
F0.00019945756934549298
sI1850026
F0.0007260829747286076
sI1850028
F0.00019945756934549298
sI3248882
F0.00019945756934549298
sI32357041
F0.00019945756934549298
sI35142323
F0.00019945756934549298
sI15497908
F0.00019945756934549298
sI113333
F0.00019945756934549298
sI3799734
F0.00019945756934549298
sI15415994
F0.00019945756934549298
sI15415995
F0.00019945756934549298
sI2439869
F0.00019945756934549298
sI14326463
F0.00019945756934549298
sI31431360
F0.00019945756934549298
sI21379779
F0.00019945756934549298
sI33053381
F0.0003689965035933066
sI800544
F0.00019945756934549298
sI20090657
F0.00019945756934549298
sI21600969
F0.00019945756934549298
sI33962698
F0.00019945756934549298
sI35142348
F0.00019945756934549298
sI1137358
F0.00019945756934549298
sI1563343
F0.00019945756934549298
sI14375632
F0.0003291832514810054
sI2112213
F0.00038784300742784243
sI7027415
F0.0005153482316512564
sI4012760
F0.00019945756934549298
sI14720119
F0.00019945756934549298
sI5634781
F0.00019945756934549298
sI42973918
F0.00019945756934549298
sI899808
F0.00019945756934549298
sI3865041
F0.00019945756934549298
sI4586221
F0.00019945756934549298
sI37444338
F0.00019945756934549298
sI723411
F0.008610483804666124
sI1858293
F0.00019945756934549298
sI35789562
F0.00019945756934549298
sI43121403
F0.00019945756934549298
sI43121404
F0.00019945756934549298
sI9221249
F0.00045624550186518974
sI9616136
F0.00019945756934549298
sI21412617
F0.00019945756934549298
sI13875980
F0.00019945756934549298
sI50273037
F0.00019945756934549298
sI37214992
F0.00019945756934549298
sI2520
F0.0008657116974967405
sI35814170
F0.00019945756934549298
sI20667168
F0.00019945756934549298
sI12736987
F0.0004550470781637434
sI15366951
F0.00019945756934549298
sI11852589
F0.00019945756934549298
sI1530672
F0.00019945756934549298
sI5159730
F0.00019945756934549298
sI10788659
F0.00019945756934549298
sI654135
F0.00019945756934549298
sI14187325
F0.00027688496188704644
sI14187326
F0.00032175760142639045
sI37919558
F0.0003291832514810054
sI39844321
F0.00019945756934549298
sI4725588
F0.00019945756934549298
sI21281625
F0.00019945756934549298
sI20757342
F0.00019945756934549298
sI3611487
F0.0003291832514810054
sI244579
F0.00019945756934549298
sI12311398
F0.00019945756934549298
sI10443632
F0.00019945756934549298
sI12469941
F0.0003291832514810054
sI1907570
F0.00019945756934549298
sI38837107
F0.00019945756934549298
sI868158
F0.0003291832514810054
sI3283830
F0.00019945756934549298
sI20472980
F0.00019945756934549298
sI4995962
F0.00019945756934549298
sI5664575
F0.00019945756934549298
sI6625770
F0.00019945756934549298
sI1071998
F0.00043555148181564533
sI3985314
F0.0036983942078167376
sI3767170
F0.0004550470781637434
sI859011
F0.00019945756934549298
sI34364293
F0.00019945756934549298
sI2128775
F0.00019945756934549298
sI38738412
F0.00019945756934549298
sI859018
F0.00019945756934549298
sI13668162
F0.00019945756934549298
sI42851214
F0.00019945756934549298
sI14293903
F0.00038784300742784243
sI37919633
F0.00019945756934549298
sI16997267
F0.00019945756934549298
sI21706631
F0.00019945756934549298
sI3783574
F0.00019945756934549298
sI40261298
F0.00019945756934549298
sI37755803
F0.00019945756934549298
sI1350556
F0.00019945756934549298
sI14769053
F0.00019945756934549298
sI13384608
F0.00019945756934549298
sI13384610
F0.00019945756934549298
sI10541988
F0.004270824462572332
sI727973
F0.00019945756934549298
sI31652775
F0.0003291832514810054
sI539561
F0.0004550470781637434
sI15080363
F0.00019945756934549298
sI20118445
F0.00019945756934549298
sI33659822
F0.00019945756934549298
sI3570611
F0.00019945756934549298
sI1653684
F0.00019945756934549298
sI10599354
F0.0005096902241908941
sI318398
F0.00019945756934549298
sI1452533
F0.00033228751546899655
sI162752
F0.0006274116616187997
sI3447751
F0.00019945756934549298
sI3447752
F0.00038784300742784243
sI924618
F0.0014977754103691217
sI441291
F0.00019945756934549298
sI35314636
F0.0004201745301094184
sI1287330
F0.00019945756934549298
sI318416
F0.00019945756934549298
sI9886673
F0.00019945756934549298
sI4234194
F0.00019945756934549298
sI42759331
F0.00019945756934549298
sI9886676
F0.00019945756934549298
sI33446869
F0.00032175760142639045
sI7560153
F0.000718693799145243
sI7560155
F0.0007103112966872527
sI4856799
F0.00019945756934549298
sI6059010
F0.00019945756934549298
sI2284516
F0.0007063494623566068
sI36500646
F0.00019945756934549298
sI5561323
F0.00019945756934549298
sI2014189
F0.0004895812387457063
sI5561327
F0.00019945756934549298
sI15266984
F0.00019945756934549298
sI7560179
F0.0005096902241908941
sI33192948
F0.00019945756934549298
sI293877
F0.00019945756934549298
sI7625726
F0.00019945756934549298
sI21519360
F0.00019945756934549298
sI1211399
F0.00043775760522343386
sI6634505
F0.003578905178773857
sI2104332
F0.00019945756934549298
sI5864461
F0.0003376153249332234
sI5864462
F0.0003376153249332234
sI15342607
F0.00019945756934549298
sI5864464
F0.0009310766179048176
sI2514776
F0.00019945756934549298
sI22092291
F0.00019945756934549298
sI4881431
F0.00019945756934549298
sI11643396
F0.00019945756934549298
sI11025434
F0.00019945756934549298
sI2729135
F0.00019945756934549298
sI12970663
F0.00019945756934549298
sI21249056
F0.00043775760522343386
sI21809670
F0.00019945756934549298
sI14679078
F0.00019945756934549298
sI21322794
F0.00019945756934549298
sI41408899
F0.00019945756934549298
sI10984495
F0.0003291832514810054
sI35421235
F0.00019945756934549298
sI16284729
F0.0002842270364693998
sI21888059
F0.00019945756934549298
sI1539133
F0.00019945756934549298
sI1358911
F0.00019945756934549298
sI8510535
F0.00032175760142639045
sI21019722
F0.00032175760142639045
sI8926391
F0.00019945756934549298
sI33209420
F0.00019945756934549298
sI3832909
F0.0003980661331817197
sI12917842
F0.0003291832514810054
sI4865115
F0.00019945756934549298
sI41335904
F0.00019945756934549298
sI14720097
F0.00041910746412430306
sI14720098
F0.00019945756934549298
sI2767971
F0.00019945756934549298
sI769125
F0.00019945756934549298
sI20536429
F0.00019945756934549298
sI4963440
F0.00019945756934549298
sI8092791
F0.00019945756934549298
sI40361080
F0.00019945756934549298
sI3914873
F0.00019945756934549298
sI40326335
F0.0004201745301094184
sI1444373
F0.00019945756934549298
sI15350915
F0.00019945756934549298
sI16669837
F0.0004086272762609719
sI30293135
F0.00019945756934549298
sI2819267
F0.00019945756934549298
sI4635797
F0.00019945756934549298
sI16972950
F0.00019945756934549298
sI14420505
F0.00019945756934549298
sI42515610
F0.00019945756934549298
sI32715973
F0.00019945756934549298
sI1129636
F0.00019945756934549298
sI4056262
F0.0006835429924949513
sI36732070
F0.00019945756934549298
sI11911025
F0.00019945756934549298
sI15006888
F0.00019945756934549298
sI30293162
F0.00038784300742784243
sI2776236
F0.00019945756934549298
sI3316909
F0.0005153482316512564
sI4128627
F0.00019945756934549298
sI20765876
F0.00019945756934549298
sI3407732
F0.00019945756934549298
sI15028085
F0.00019945756934549298
sI5979330
F0.00019945756934549298
sI40361158
F0.00019945756934549298
sI2645194
F0.00019945756934549298
sI12630562
F0.00019945756934549298
sI40076493
F0.00019945756934549298
sI3095768
F0.00019945756934549298
sI10427619
F0.00019945756934549298
sI2702564
F0.00019945756934549298
sI3175633
F0.00019945756934549298
sI9633660
F0.0010440288591963079
sI13188332
F0.00019945756934549298
sI31642834
F0.00019945756934549298
sI2497775
F0.00019945756934549298
sI3849456
F0.00019945756934549298
sI20749555
F0.00019945756934549298
sI7068916
F0.00032259337095147107
sI30657065
F0.00019945756934549298
sI10714362
F0.00019945756934549298
sI37051649
F0.00019945756934549298
sI37641477
F0.0004283351308831539
sI30465286
F0.00019945756934549298
sI3128586
F0.00043775760522343386
sI20544779
F0.00019945756934549298
sI22068498
F0.00019945756934549298
sI11205908
F0.0006238272725919391
sI13942041
F0.00019945756934549298
sI1629468
F0.00019945756934549298
sI42900765
F0.00019945756934549298
sI5258528
F0.00019945756934549298
sI20913441
F0.00019945756934549298
sI39470242
F0.00032259337095147107
sI16284970
F0.00036627887688058387
sI4321159
F0.00019945756934549298
sI4160812
F0.00019945756934549298
sI41286958
F0.0010471522405845611
sI37977391
F0.00019945756934549298
sI4914480
F0.00019945756934549298
sI12524850
F0.0005573835248103401
sI4160819
F0.00019945756934549298
sI4865332
F0.0006238272725919391
sI30629173
F0.00019945756934549298
sI22125878
F0.00019945756934549298
sI1432890
F0.000968148565417078
sI14507323
F0.0007109415565845234
sI14909322
F0.00019945756934549298
sI4513088
F0.00019945756934549298
sI39411011
F0.00019945756934549298
sI39411012
F0.00019945756934549298
sI4390216
F0.00019945756934549298
sI8101772
F0.00038595039732120044
sI33635669
F0.00019945756934549298
sI33135959
F0.00019945756934549298
sI1400154
F0.00019945756934549298
sI793947
F0.00019945756934549298
sI1105245
F0.00019945756934549298
sI1277278
F0.0004201745301094184
sI7820517
F0.0003291832514810054
sI5158552
F0.0004550470781637434
sI42900835
F0.002536682577749331
sI16661861
F0.00019945756934549298
sI12467564
F0.00019945756934549298
sI3985298
F0.0003796844736520975
sI30694769
F0.00019945756934549298
sI20880755
F0.00019945756934549298
sI32251255
F0.00019945756934549298
sI6053242
F0.0007069483044439638
sI20931818
F0.00019945756934549298
sI12852607
F0.00019945756934549298
sI3677579
F0.00019945756934549298
sI3800460
F0.00019945756934549298
sI3800462
F0.00019945756934549298
sI14769552
F0.00019945756934549298
sI1834905
F0.00019945756934549298
sI941465
F0.00019945756934549298
sI7779567
F0.00019945756934549298
sI3546529
F0.00019945756934549298
sI12410274
F0.00019945756934549298
sI1482147
F0.00019945756934549298
sI1482151
F0.00019945756934549298
sI261549
F0.00019945756934549298
sI3080093
F0.0007411739152227689
sI37838256
F0.00019945756934549298
sI37838257
F0.00019945756934549298
sI3153332
F0.00019945756934549298
sI14597562
F0.00019945756934549298
sI1162683
F0.00019945756934549298
sI11558332
F0.0006451271557907179
sI5176766
F0.00019945756934549298
sI32419744
F0.00019945756934549298
sI21114785
F0.00019945756934549298
sI37477832
F0.00019945756934549298
sI21528013
F0.00019945756934549298
sI1580494
F0.00019945756934549298
sI1580498
F0.00019945756934549298
sI15818659
F0.00019945756934549298
sI32759252
F0.00019945756934549298
sI20633251
F0.00019945756934549298
sI35618263
F0.00019945756934549298
sI37523945
F0.0003291832514810054
sI31940069
F0.00019945756934549298
sI30776809
F0.00019945756934549298
sI13655532
F0.00019945756934549298
sI41123311
F0.00033228751546899655
sI41123312
F0.00033228751546899655
sI1179124
F0.00019945756934549298
sI51158518
F0.00019945756934549298
sI4513272
F0.00019945756934549298
sI36961785
F0.00019945756934549298
sI40762874
F0.00019945756934549298
sI8692991
F0.00019945756934549298
sI21768028
F0.00019945756934549298
sI8822284
F0.00019945756934549298
sI30850573
F0.00019945756934549298
sI1695251
F0.00019945756934549298
sI16973335
F0.00019945756934549298
sI1031705
F0.00019945756934549298
sI35618339
F0.00019945756934549298
sI2432551
F0.00019945756934549298
sI1170984
F0.0003291832514810054
sI2219569
F0.00019945756934549298
sI2219570
F0.0005449356293006261
sI179770
F0.00019945756934549298
sI21511740
F0.00019945756934549298
sI13285039
F0.00019945756934549298
sI50988299
F0.001329714521011634
sI13254213
F0.00019945756934549298
sI13254214
F0.00019945756934549298
sI14605908
F0.00019945756934549298
sI38567512
F0.00019945756934549298
sI21257817
F0.00019945756934549298
sI21257819
F0.00019945756934549298
sI32726620
F0.00019945756934549298
sI667578
F0.00019945756934549298
sI712290
F0.00043775760522343386
sI33881699
F0.0005131045980070607
sI4102908
F0.00019945756934549298
sI294503
F0.00019945756934549298
sI4742760
F0.00019945756934549298
sI4513386
F0.00019945756934549298
sI1605227
F0.00019945756934549298
sI14458477
F0.0009193148716416016
sI15105652
F0.00019945756934549298
sI9355198
F0.0003291832514810054
sI31719032
F0.00019945756934549298
sI343673
F0.00019945756934549298
sI2104957
F0.002989102513098032
sI20717186
F0.00019945756934549298
sI3956358
F0.00019945756934549298
sI2104969
F0.0006451271557907179
sI35618442
F0.0012084137969370207
sI11697803
F0.001044130270801742
sI1042835
F0.00019945756934549298
sI573073
F0.00019945756934549298
sI4710036
F0.00019945756934549298
sI30801557
F0.00019945756934549298
sI4890262
F0.00019945756934549298
sI5594775
F0.0003291832514810054
sI30801561
F0.00019945756934549298
sI6069923
F0.00019945756934549298
sI3432105
F0.00019945756934549298
sI22142635
F0.00019945756934549298
sI2457260
F0.00019945756934549298
sI319150
F0.0004895812387457063
sI21061304
F0.00019945756934549298
sI21061306
F0.0006933471140416843
sI5486191
F0.00019945756934549298
sI5136061
F0.00019945756934549298
sI3079872
F0.00019945756934549298
sI33226434
F0.00019945756934549298
sI5136067
F0.00019945756934549298
sI12181193
F0.0006451271557907179
sI425678
F0.00019945756934549298
sI1449682
F0.00043555148181564533
sI34184918
F0.00019945756934549298
sI13639390
F0.00019945756934549298
sI21741280
F0.00019945756934549298
sI30293732
F0.00019945756934549298
sI3907301
F0.00019945756934549298
sI30293739
F0.00019945756934549298
sI6610668
F0.000878303471250528
sI1305255
F0.00019945756934549298
sI20356851
F0.00019945756934549298
sI2629365
F0.00019945756934549298
sI7249659
F0.003753246563985359
sI14589696
F0.00019945756934549298
sI5486219
F0.00019945756934549298
sI17579780
F0.00019945756934549298
sI32907013
F0.00019945756934549298
sI20299526
F0.0005381491118409724
sI3876504
F0.00019945756934549298
sI32415502
F0.00019945756934549298
sI4097325
F0.00019945756934549298
sI20981332
F0.00019945756934549298
sI4095761
F0.00019945756934549298
sI2686738
F0.0003291832514810054
sI42762201
F0.00019945756934549298
sI15654689
F0.00019945756934549298
sI42729252
F0.00019945756934549298
sI20414258
F0.00019945756934549298
sI15025459
F0.0004090332433205655
sI34537273
F0.00019945756934549298
sI15081275
F0.00019945756934549298
sI7290686
F0.00019945756934549298
sI21544767
F0.00019945756934549298
sI188224
F0.0004550470781637434
sI1134560
F0.00019945756934549298
sI21831490
F0.00019945756934549298
sI17815147
F0.00019945756934549298
sI34332489
F0.00019945756934549298
sI2817869
F0.00019945756934549298
sI20404877
F0.00019945756934549298
sI13997368
F0.00019945756934549298
sI30687064
F0.00019945756934549298
sI30850908
F0.00019945756934549298
sI2613087
F0.00019945756934549298
sI1507173
F0.00019945756934549298
sI319336
F0.00019945756934549298
sI14122858
F0.0018210056963340552
sI20919434
F0.00019945756934549298
sI14122861
F0.00386553730819464
sI13688686
F0.00019945756934549298
sI11911024
F0.00019945756934549298
sI13688689
F0.00019945756934549298
sI11911027
F0.00019945756934549298
sI32563060
F0.00019945756934549298
sI1851253
F0.0009883446004126345
sI15351671
F0.00019945756934549298
sI2334585
F0.00019945756934549298
sI2514811
F0.00019945756934549298
sI3866492
F0.00019945756934549298
sI32268157
F0.00019945756934549298
sI2670463
F0.00019945756934549298
sI11706245
F0.0003291832514810054
sI22085510
F0.00019945756934549298
sI51333574
F0.00019945756934549298
sI4155292
F0.00019945756934549298
sI9133964
F0.00038279920639461165
sI15785870
F0.00019945756934549298
sI40614858
F0.0004283351308831539
sI13361041
F0.00019945756934549298
sI130963
F0.00019945756934549298
sI130969
F0.00019945756934549298
sI13582236
F0.00019945756934549298
sI15622045
F0.0004201745301094184
sI1621921
F0.00019945756934549298
sI1621922
F0.00032175760142639045
sI20728475
F0.00019945756934549298
sI130988
F0.00019945756934549298
sI21520307
F0.00019945756934549298
sI20864950
F0.00019945756934549298
sI1504393
F0.0003291832514810054
sI33161147
F0.008971295385392595
sI573374
F0.00019945756934549298
sI3006061
F0.00019945756934549298
sI5209871
F0.00019945756934549298
sI2832882
F0.0007577990066197825
sI819144
F0.0007128995278422302
sI16285644
F0.00019945756934549298
sI13818530
F0.00019945756934549298
sI33416459
F0.00019945756934549298
sI15220693
F0.00019945756934549298
sI12279768
F0.00019945756934549298
sI41648089
F0.00019945756934549298
sI8175578
F0.00019945756934549298
sI11648990
F0.00019945756934549298
sI21768869
F0.00019945756934549298
sI31522784
F0.00019945756934549298
sI14417891
F0.00019945756934549298
sI33873895
F0.00040226219834100694
sI19046396
F0.00019945756934549298
sI20466343
F0.00019945756934549298
sI10232617
F0.00019945756934549298
sI14852084
F0.00019945756934549298
sI458741
F0.000822458249183525
sI5013495
F0.00019945756934549298
sI5144572
F0.00019945756934549298
sI34275327
F0.00041858318496319085
s.